                              1 ;--------------------------------------------------------
                              2 ; File Created by SDCC : FreeWare ANSI-C Compiler
                              3 ; Version 2.3.1 Wed Sep 04 21:56:15 2019
                              4 
                              5 ;--------------------------------------------------------
                              6 	.module atoi
                              7 	
                              8 ;--------------------------------------------------------
                              9 ; Public variables in this module
                             10 ;--------------------------------------------------------
                             11 	.globl _atoi
                             12 ;--------------------------------------------------------
                             13 ; special function registers
                             14 ;--------------------------------------------------------
                             15 ;--------------------------------------------------------
                             16 ; special function bits 
                             17 ;--------------------------------------------------------
                             18 ;--------------------------------------------------------
                             19 ; internal ram data
                             20 ;--------------------------------------------------------
                             21 	.area _DATA
                             22 ;--------------------------------------------------------
                             23 ; overlayable items in internal ram 
                             24 ;--------------------------------------------------------
                             25 	.area _OVERLAY
                             26 ;--------------------------------------------------------
                             27 ; indirectly addressable internal ram data
                             28 ;--------------------------------------------------------
                             29 	.area _ISEG
                             30 ;--------------------------------------------------------
                             31 ; bit data
                             32 ;--------------------------------------------------------
                             33 	.area _BSEG
                             34 ;--------------------------------------------------------
                             35 ; external ram data
                             36 ;--------------------------------------------------------
                             37 	.area _XSEG
                             38 ;--------------------------------------------------------
                             39 ; global & static initialisations
                             40 ;--------------------------------------------------------
                             41 	.area _GSINIT
                             42 	.area _GSFINAL
                             43 	.area _GSINIT
                             44 ;--------------------------------------------------------
                             45 ; Home
                             46 ;--------------------------------------------------------
                             47 	.area _HOME
                             48 ;	atoi.c 5
                             49 ;	genLabel
                             50 ;	genFunction
                             51 ;	---------------------------------
                             52 ; Function atoi
                             53 ; ---------------------------------
   0000                      54 ___atoi_start:
   0000                      55 _atoi:
   0000 E8 FA                56 	lda	sp,-6(sp)
                             57 ;	atoi.c 7
                             58 ;	genAssign
                             59 ;	AOP_STK for _atoi_sign_1_1
   0002 F8 04                60 	lda	hl,4(sp)
   0004 36 00                61 	ld	(hl),#0x00
                             62 ;	atoi.c 10
                             63 ;	genAssign
                             64 ;	AOP_STK for _atoi_i_1_1
   0006 23                   65 	inc	hl
   0007 36 00                66 	ld	(hl),#0x00
                             67 ;	genLabel
   0009                      68 00106$:
                             69 ;	genPlus
                             70 ;	AOP_STK for 
                             71 ;	AOP_STK for _atoi_i_1_1
                             72 ;	AOP_STK for _atoi_sloc0_1_0
                             73 ;	Can't optimise plus by inc, falling back to the normal way
   0009 F8 08                74 	lda	hl,8(sp)
   000B 5E                   75 	ld	e,(hl)
   000C 23                   76 	inc	hl
   000D 56                   77 	ld	d,(hl)
   000E F8 05                78 	lda	hl,5(sp)
   0010 6E                   79 	ld	l,(hl)
   0011 26 00                80 	ld	h,#0x00
   0013 19                   81 	add	hl,de
   0014 7D                   82 	ld	a,l
   0015 54                   83 	ld	d,h
   0016 F8 01                84 	lda	hl,1(sp)
                             85 ;	genPointerGet
                             86 ;	AOP_STK for _atoi_sloc0_1_0
   0018 22                   87 	ld	(hl+),a
   0019 72                   88 	ld	(hl),d
   001A 5F                   89 	ld	e,a
   001B 1A                   90 	ld	a,(de)
                             91 ;	genCmpEq
                             92 ; genCmpEq: left 1, right 1, result 0
   001C 4F                   93 	ld	c,a
   001D FE 20                94 	cp	a,#0x20
   001F CAr39s00             95 	jp	z,00108$
   0022                      96 00126$:
                             97 ;	genCmpEq
                             98 ; genCmpEq: left 1, right 1, result 0
   0022 79                   99 	ld	a,c
   0023 FE 0A               100 	cp	a,#0x0A
   0025 CAr39s00            101 	jp	z,00108$
   0028                     102 00127$:
                            103 ;	genCmpEq
                            104 ; genCmpEq: left 1, right 1, result 1
   0028 79                  105 	ld	a,c
   0029 FE 09               106 	cp	a,#0x09
   002B C2r32s00            107 	jp	nz,00128$
   002E 3E 01               108 	ld	a,#0x01
   0030 18 01               109 	jr	00129$
   0032                     110 00128$:
   0032 AF                  111 	xor	a,a
   0033                     112 00129$:
   0033 47                  113 	ld	b,a
                            114 ;	genAssign
                            115 ;	AOP_STK for _atoi_i_1_1
                            116 ;	(registers are the same)
                            117 ;	genIfx
   0034 AF                  118 	xor	a,a
   0035 B0                  119 	or	a,b
   0036 CAr3Fs00            120 	jp	z,00109$
                            121 ;	genLabel
   0039                     122 00108$:
                            123 ;	genPlus
                            124 ;	AOP_STK for _atoi_i_1_1
                            125 ;	genPlusIncr
   0039 F8 05               126 	lda	hl,5(sp)
   003B 34                  127 	inc	(hl)
                            128 ;	genGoto
   003C C3r09s00            129 	jp	00106$
                            130 ;	genLabel
   003F                     131 00109$:
                            132 ;	atoi.c 12
                            133 ;	genCmpEq
                            134 ; genCmpEq: left 1, right 1, result 0
   003F 79                  135 	ld	a,c
   0040 FE 2B               136 	cp	a,#0x2B
   0042 CAr54s00            137 	jp	z,00102$
   0045                     138 00130$:
                            139 ;	genCmpEq
                            140 ; genCmpEq: left 1, right 1, result 0
   0045 79                  141 	ld	a,c
   0046 FE 2D               142 	cp	a,#0x2D
   0048 C2r57s00            143 	jp	nz,00103$
   004B 18 03               144 	jr	00132$
   004D                     145 00131$:
   004D C3r57s00            146 	jp	00103$
   0050                     147 00132$:
                            148 ;	atoi.c 15
                            149 ;	genAssign
                            150 ;	AOP_STK for _atoi_sign_1_1
   0050 F8 04               151 	lda	hl,4(sp)
   0052 36 01               152 	ld	(hl),#0x01
                            153 ;	atoi.c 18
                            154 ;	genLabel
   0054                     155 00102$:
                            156 ;	genPlus
                            157 ;	AOP_STK for _atoi_i_1_1
                            158 ;	genPlusIncr
   0054 F8 05               159 	lda	hl,5(sp)
   0056 34                  160 	inc	(hl)
                            161 ;	atoi.c 20
                            162 ;	genLabel
   0057                     163 00103$:
                            164 ;	atoi.c 21
                            165 ;	genAssign
                            166 ;	AOP_STK for _atoi_n_1_1
   0057 F8 03               167 	lda	hl,3(sp)
   0059 36 00               168 	ld	(hl),#0x00
                            169 ;	genAssign
                            170 ;	AOP_STK for _atoi_i_1_1
                            171 ;	(registers are the same)
                            172 ;	genLabel
   005B                     173 00110$:
                            174 ;	genPlus
                            175 ;	AOP_STK for 
                            176 ;	AOP_STK for _atoi_i_1_1
                            177 ;	AOP_STK for _atoi_sloc0_1_0
                            178 ;	Can't optimise plus by inc, falling back to the normal way
   005B F8 08               179 	lda	hl,8(sp)
   005D 5E                  180 	ld	e,(hl)
   005E 23                  181 	inc	hl
   005F 56                  182 	ld	d,(hl)
   0060 F8 05               183 	lda	hl,5(sp)
   0062 6E                  184 	ld	l,(hl)
   0063 26 00               185 	ld	h,#0x00
   0065 19                  186 	add	hl,de
   0066 7D                  187 	ld	a,l
   0067 54                  188 	ld	d,h
   0068 F8 01               189 	lda	hl,1(sp)
                            190 ;	genPointerGet
                            191 ;	AOP_STK for _atoi_sloc0_1_0
   006A 22                  192 	ld	(hl+),a
   006B 72                  193 	ld	(hl),d
   006C 5F                  194 	ld	e,a
   006D 1A                  195 	ld	a,(de)
                            196 ;	genIpush
                            197 ; _saveRegsForCall: sendSetSize: 0 deInUse: 0 bcInUse: 0 deSending: 0
   006E 4F                  198 	ld	c,a
   006F F5                  199 	push	af
   0070 33                  200 	inc	sp
                            201 ;	genCall
   0071 CDr00s00            202 	call	_isdigit
   0074 4B                  203 	ld	c,e
   0075 E8 01               204 	lda	sp,1(sp)
                            205 ;	genIfx
   0077 AF                  206 	xor	a,a
   0078 B1                  207 	or	a,c
   0079 CArB4s00            208 	jp	z,00113$
                            209 ;	atoi.c 22
                            210 ;	genMult
                            211 ;	AOP_STK for _atoi_n_1_1
   007C F8 03               212 	lda	hl,3(sp)
   007E 5E                  213 	ld	e,(hl)
   007F 7B                  214 	ld	a,e
   0080 CB 07               215 	rlc	a
   0082 9F                  216 	sbc	a,a
   0083 57                  217 	ld	d,a
   0084 6B                  218 	ld	l,e
   0085 62                  219 	ld	h,d
   0086 29                  220 	add	hl,hl
   0087 29                  221 	add	hl,hl
   0088 19                  222 	add	hl,de
   0089 29                  223 	add	hl,hl
   008A 4D                  224 	ld	c,l
   008B 44                  225 	ld	b,h
                            226 ;	genPointerGet
                            227 ;	AOP_STK for _atoi_sloc0_1_0
                            228 ;	AOP_STK for _atoi_sloc1_1_0
   008C F8 01               229 	lda	hl,1(sp)
   008E 5E                  230 	ld	e,(hl)
   008F 23                  231 	inc	hl
   0090 56                  232 	ld	d,(hl)
   0091 1A                  233 	ld	a,(de)
   0092 2B                  234 	dec	hl
   0093 2B                  235 	dec	hl
   0094 77                  236 	ld	(hl),a
                            237 ;	genCast
                            238 ;	AOP_STK for _atoi_sloc1_1_0
                            239 ;	AOP_STK for _atoi_sloc0_1_0
   0095 2A                  240 	ld	a,(hl+)
   0096 32                  241 	ld      (hl-),a
   0097 7E                  242 	ld	a,(hl)
   0098 17                  243 	rla	
   0099 9F                  244 	sbc	a,a
   009A 23                  245 	inc	hl
   009B 23                  246 	inc	hl
                            247 ;	genPlus
                            248 ;	AOP_STK for _atoi_sloc0_1_0
                            249 ;	Can't optimise plus by inc, falling back to the normal way
   009C 32                  250 	ld      (hl-),a
   009D 2A                  251 	ld	a,(hl+)
   009E 66                  252 	ld	h,(hl)
   009F 6F                  253 	ld	l,a
   00A0 09                  254 	add	hl,bc
   00A1 4D                  255 	ld	c,l
   00A2 44                  256 	ld	b,h
                            257 ;	genMinus
   00A3 79                  258 	ld	a,c
   00A4 C6 D0               259 	add	a,#0xD0
   00A6 4F                  260 	ld	c,a
   00A7 78                  261 	ld	a,b
   00A8 CE FF               262 	adc	a,#0xFF
   00AA 47                  263 	ld	b,a
                            264 ;	genCast
                            265 ;	AOP_STK for _atoi_n_1_1
   00AB F8 03               266 	lda	hl,3(sp)
   00AD 71                  267 	ld	(hl),c
                            268 ;	atoi.c 21
                            269 ;	genPlus
                            270 ;	AOP_STK for _atoi_i_1_1
                            271 ;	genPlusIncr
   00AE 23                  272 	inc	hl
   00AF 23                  273 	inc	hl
   00B0 34                  274 	inc	(hl)
                            275 ;	genGoto
   00B1 C3r5Bs00            276 	jp	00110$
                            277 ;	genLabel
   00B4                     278 00113$:
                            279 ;	atoi.c 23
                            280 ;	genCmpEq
                            281 ;	AOP_STK for _atoi_sign_1_1
                            282 ; genCmpEq: left 1, right 1, result 0
   00B4 F8 04               283 	lda	hl,4(sp)
   00B6 7E                  284 	ld	a,(hl)
   00B7 B7                  285 	or	a,a
   00B8 C2rC6s00            286 	jp	nz,00116$
   00BB 18 03               287 	jr	00134$
   00BD                     288 00133$:
   00BD C3rC6s00            289 	jp	00116$
   00C0                     290 00134$:
                            291 ;	genAssign
                            292 ;	AOP_STK for _atoi_n_1_1
   00C0 F8 03               293 	lda	hl,3(sp)
   00C2 4E                  294 	ld	c,(hl)
                            295 ;	genGoto
   00C3 C3rCDs00            296 	jp	00117$
                            297 ;	genLabel
   00C6                     298 00116$:
                            299 ;	genUminus
                            300 ;	AOP_STK for _atoi_n_1_1
   00C6 AF                  301 	xor	a,a
   00C7 F8 03               302 	lda	hl,3(sp)
   00C9 3E 00               303 	ld	a,#0x00
   00CB 9E                  304 	sbc	a,(hl)
   00CC 4F                  305 	ld	c,a
                            306 ;	genLabel
   00CD                     307 00117$:
                            308 ;	genCast
                            309 ; Removed redundent load
   00CD 79                  310 	ld	a,c
   00CE 17                  311 	rla	
   00CF 9F                  312 	sbc	a,a
   00D0 47                  313 	ld	b,a
                            314 ;	genRet
   00D1 59                  315 	ld	e,c
   00D2 50                  316 	ld	d,b
                            317 ;	genLabel
   00D3                     318 00114$:
                            319 ;	genEndFunction
   00D3 E8 06               320 	lda	sp,6(sp)
   00D5 C9                  321 	ret
   00D6                     322 ___atoi_end:
                            323 	.area _CODE
                            324 ;--------------------------------------------------------
                            325 ; code
                            326 ;--------------------------------------------------------
                            327 	.area _CODE
                            328 	.area _CODE
