                              1 ;--------------------------------------------------------
                              2 ; File Created by SDCC : FreeWare ANSI-C Compiler
                              3 ; Version 2.3.1 Wed Sep 04 21:56:15 2019
                              4 
                              5 ;--------------------------------------------------------
                              6 	.module atol
                              7 	
                              8 ;--------------------------------------------------------
                              9 ; Public variables in this module
                             10 ;--------------------------------------------------------
                             11 	.globl _atol
                             12 ;--------------------------------------------------------
                             13 ; special function registers
                             14 ;--------------------------------------------------------
                             15 ;--------------------------------------------------------
                             16 ; special function bits 
                             17 ;--------------------------------------------------------
                             18 ;--------------------------------------------------------
                             19 ; internal ram data
                             20 ;--------------------------------------------------------
                             21 	.area _DATA
                             22 ;--------------------------------------------------------
                             23 ; overlayable items in internal ram 
                             24 ;--------------------------------------------------------
                             25 	.area _OVERLAY
                             26 ;--------------------------------------------------------
                             27 ; indirectly addressable internal ram data
                             28 ;--------------------------------------------------------
                             29 	.area _ISEG
                             30 ;--------------------------------------------------------
                             31 ; bit data
                             32 ;--------------------------------------------------------
                             33 	.area _BSEG
                             34 ;--------------------------------------------------------
                             35 ; external ram data
                             36 ;--------------------------------------------------------
                             37 	.area _XSEG
                             38 ;--------------------------------------------------------
                             39 ; global & static initialisations
                             40 ;--------------------------------------------------------
                             41 	.area _GSINIT
                             42 	.area _GSFINAL
                             43 	.area _GSINIT
                             44 ;--------------------------------------------------------
                             45 ; Home
                             46 ;--------------------------------------------------------
                             47 	.area _HOME
                             48 ;	atol.c 4
                             49 ;	genLabel
                             50 ;	genFunction
                             51 ;	---------------------------------
                             52 ; Function atol
                             53 ; ---------------------------------
   0000                      54 ___atol_start:
   0000                      55 _atol:
   0000 E8 EC                56 	lda	sp,-20(sp)
                             57 ;	atol.c 6
                             58 ;	genAssign
                             59 ;	AOP_STK for _atol_sign_1_1
   0002 F8 12                60 	lda	hl,18(sp)
   0004 36 00                61 	ld	(hl),#0x00
                             62 ;	atol.c 9
                             63 ;	genAssign
                             64 ;	AOP_STK for _atol_i_1_1
   0006 23                   65 	inc	hl
   0007 36 00                66 	ld	(hl),#0x00
                             67 ;	genLabel
   0009                      68 00106$:
                             69 ;	genPlus
                             70 ;	AOP_STK for 
                             71 ;	AOP_STK for _atol_i_1_1
                             72 ;	AOP_STK for _atol_sloc0_1_0
                             73 ;	Can't optimise plus by inc, falling back to the normal way
   0009 F8 16                74 	lda	hl,22(sp)
   000B 5E                   75 	ld	e,(hl)
   000C 23                   76 	inc	hl
   000D 56                   77 	ld	d,(hl)
   000E F8 13                78 	lda	hl,19(sp)
   0010 6E                   79 	ld	l,(hl)
   0011 26 00                80 	ld	h,#0x00
   0013 19                   81 	add	hl,de
   0014 7D                   82 	ld	a,l
   0015 54                   83 	ld	d,h
   0016 F8 0C                84 	lda	hl,12(sp)
                             85 ;	genPointerGet
                             86 ;	AOP_STK for _atol_sloc0_1_0
   0018 22                   87 	ld	(hl+),a
   0019 72                   88 	ld	(hl),d
   001A 5F                   89 	ld	e,a
   001B 1A                   90 	ld	a,(de)
                             91 ;	genCmpEq
                             92 ; genCmpEq: left 1, right 1, result 0
   001C 4F                   93 	ld	c,a
   001D FE 20                94 	cp	a,#0x20
   001F CAr39s00             95 	jp	z,00108$
   0022                      96 00126$:
                             97 ;	genCmpEq
                             98 ; genCmpEq: left 1, right 1, result 0
   0022 79                   99 	ld	a,c
   0023 FE 0A               100 	cp	a,#0x0A
   0025 CAr39s00            101 	jp	z,00108$
   0028                     102 00127$:
                            103 ;	genCmpEq
                            104 ; genCmpEq: left 1, right 1, result 1
   0028 79                  105 	ld	a,c
   0029 FE 09               106 	cp	a,#0x09
   002B C2r32s00            107 	jp	nz,00128$
   002E 3E 01               108 	ld	a,#0x01
   0030 18 01               109 	jr	00129$
   0032                     110 00128$:
   0032 AF                  111 	xor	a,a
   0033                     112 00129$:
   0033 47                  113 	ld	b,a
                            114 ;	genAssign
                            115 ;	AOP_STK for _atol_i_1_1
                            116 ;	(registers are the same)
                            117 ;	genIfx
   0034 AF                  118 	xor	a,a
   0035 B0                  119 	or	a,b
   0036 CAr3Fs00            120 	jp	z,00109$
                            121 ;	genLabel
   0039                     122 00108$:
                            123 ;	genPlus
                            124 ;	AOP_STK for _atol_i_1_1
                            125 ;	genPlusIncr
   0039 F8 13               126 	lda	hl,19(sp)
   003B 34                  127 	inc	(hl)
                            128 ;	genGoto
   003C C3r09s00            129 	jp	00106$
                            130 ;	genLabel
   003F                     131 00109$:
                            132 ;	atol.c 11
                            133 ;	genCmpEq
                            134 ; genCmpEq: left 1, right 1, result 0
   003F 79                  135 	ld	a,c
   0040 FE 2B               136 	cp	a,#0x2B
   0042 CAr54s00            137 	jp	z,00102$
   0045                     138 00130$:
                            139 ;	genCmpEq
                            140 ; genCmpEq: left 1, right 1, result 0
   0045 79                  141 	ld	a,c
   0046 FE 2D               142 	cp	a,#0x2D
   0048 C2r57s00            143 	jp	nz,00103$
   004B 18 03               144 	jr	00132$
   004D                     145 00131$:
   004D C3r57s00            146 	jp	00103$
   0050                     147 00132$:
                            148 ;	atol.c 14
                            149 ;	genAssign
                            150 ;	AOP_STK for _atol_sign_1_1
   0050 F8 12               151 	lda	hl,18(sp)
   0052 36 01               152 	ld	(hl),#0x01
                            153 ;	atol.c 17
                            154 ;	genLabel
   0054                     155 00102$:
                            156 ;	genPlus
                            157 ;	AOP_STK for _atol_i_1_1
                            158 ;	genPlusIncr
   0054 F8 13               159 	lda	hl,19(sp)
   0056 34                  160 	inc	(hl)
                            161 ;	atol.c 19
                            162 ;	genLabel
   0057                     163 00103$:
                            164 ;	atol.c 20
                            165 ;	genAssign
                            166 ;	AOP_STK for _atol_n_1_1
   0057 AF                  167 	xor	a,a
   0058 F8 0E               168 	lda	hl,14(sp)
   005A 22                  169 	ld	(hl+),a
   005B 22                  170 	ld	(hl+),a
   005C 22                  171 	ld	(hl+),a
   005D 77                  172 	ld	(hl),a
                            173 ;	genAssign
                            174 ;	AOP_STK for _atol_i_1_1
                            175 ;	(registers are the same)
                            176 ;	genLabel
   005E                     177 00110$:
                            178 ;	genPlus
                            179 ;	AOP_STK for 
                            180 ;	AOP_STK for _atol_i_1_1
                            181 ;	AOP_STK for _atol_sloc0_1_0
                            182 ;	Can't optimise plus by inc, falling back to the normal way
   005E F8 16               183 	lda	hl,22(sp)
   0060 5E                  184 	ld	e,(hl)
   0061 23                  185 	inc	hl
   0062 56                  186 	ld	d,(hl)
   0063 F8 13               187 	lda	hl,19(sp)
   0065 6E                  188 	ld	l,(hl)
   0066 26 00               189 	ld	h,#0x00
   0068 19                  190 	add	hl,de
   0069 7D                  191 	ld	a,l
   006A 54                  192 	ld	d,h
   006B F8 0C               193 	lda	hl,12(sp)
                            194 ;	genPointerGet
                            195 ;	AOP_STK for _atol_sloc0_1_0
   006D 22                  196 	ld	(hl+),a
   006E 72                  197 	ld	(hl),d
   006F 5F                  198 	ld	e,a
   0070 1A                  199 	ld	a,(de)
                            200 ;	genIpush
                            201 ; _saveRegsForCall: sendSetSize: 0 deInUse: 0 bcInUse: 0 deSending: 0
   0071 47                  202 	ld	b,a
   0072 F5                  203 	push	af
   0073 33                  204 	inc	sp
                            205 ;	genCall
   0074 CDr00s00            206 	call	_isdigit
   0077 43                  207 	ld	b,e
   0078 E8 01               208 	lda	sp,1(sp)
                            209 ;	genIfx
   007A AF                  210 	xor	a,a
   007B B0                  211 	or	a,b
   007C CArFEs00            212 	jp	z,00113$
                            213 ;	atol.c 21
                            214 ;	genIpush
                            215 ; _saveRegsForCall: sendSetSize: 0 deInUse: 0 bcInUse: 0 deSending: 0
   007F 21 00 00            216 	ld	hl,#0x0000
   0082 E5                  217 	push	hl
   0083 21 0A 00            218 	ld	hl,#0x000A
   0086 E5                  219 	push	hl
                            220 ;	genIpush
                            221 ;	AOP_STK for _atol_n_1_1
   0087 F8 14               222 	lda	hl,20(sp)
   0089 2A                  223 	ld	a,(hl+)
   008A 66                  224 	ld	h,(hl)
   008B 6F                  225 	ld	l,a
   008C E5                  226 	push	hl
   008D F8 14               227 	lda	hl,20(sp)
   008F 2A                  228 	ld	a,(hl+)
   0090 66                  229 	ld	h,(hl)
   0091 6F                  230 	ld	l,a
   0092 E5                  231 	push	hl
                            232 ;	genCall
   0093 CDr00s00            233 	call	__mulslong_rrx_s
                            234 ;	AOP_STK for _atol_sloc1_1_0
   0096 E5                  235 	push	hl
   0097 F8 12               236 	lda	hl,18(sp)
   0099 73                  237 	ld	(hl),e
   009A 23                  238 	inc	hl
   009B 72                  239 	ld	(hl),d
   009C D1                  240 	pop	de
   009D 23                  241 	inc	hl
   009E 73                  242 	ld	(hl),e
   009F 23                  243 	inc	hl
   00A0 72                  244 	ld	(hl),d
   00A1 E8 08               245 	lda	sp,8(sp)
                            246 ;	genPointerGet
                            247 ;	AOP_STK for _atol_sloc0_1_0
   00A3 F8 0C               248 	lda	hl,12(sp)
   00A5 5E                  249 	ld	e,(hl)
   00A6 23                  250 	inc	hl
   00A7 56                  251 	ld	d,(hl)
   00A8 1A                  252 	ld	a,(de)
   00A9 4F                  253 	ld	c,a
                            254 ;	genCast
                            255 ;	AOP_STK for _atol_sloc2_1_0
   00AA F8 04               256 	lda	hl,4(sp)
   00AC 71                  257 	ld	(hl),c
   00AD 79                  258 	ld	a,c
   00AE 17                  259 	rla	
   00AF 9F                  260 	sbc	a,a
   00B0 23                  261 	inc	hl
   00B1 22                  262 	ld	(hl+),a
   00B2 22                  263 	ld	(hl+),a
                            264 ;	genPlus
                            265 ;	AOP_STK for _atol_sloc1_1_0
                            266 ;	AOP_STK for _atol_sloc2_1_0
                            267 ;	AOP_STK for _atol_sloc3_1_0
                            268 ;	Can't optimise plus by inc, falling back to the normal way
   00B3 22                  269 	ld	(hl+),a
   00B4 5E                  270 	ld	e,(hl)
   00B5 23                  271 	inc	hl
   00B6 56                  272 	ld	d,(hl)
   00B7 7B                  273 	ld	a,e
   00B8 F8 04               274 	lda	hl,4(sp)
   00BA 86                  275 	add	a,(hl)
   00BB 5F                  276 	ld	e,a
   00BC 7A                  277 	ld	a,d
   00BD 23                  278 	inc	hl
   00BE 8E                  279 	adc	a,(hl)
   00BF F5                  280 	push	af
   00C0 F8 03               281 	lda	hl,3(sp)
   00C2 32                  282 	ld      (hl-),a
   00C3 73                  283 	ld	(hl),e
   00C4 F8 0C               284 	lda	hl,12(sp)
   00C6 5E                  285 	ld	e,(hl)
   00C7 23                  286 	inc	hl
   00C8 56                  287 	ld	d,(hl)
   00C9 F8 08               288 	lda	hl,8(sp)
   00CB F1                  289 	pop	af
   00CC 7B                  290 	ld	a,e
   00CD 8E                  291 	adc	a,(hl)
   00CE 5F                  292 	ld	e,a
   00CF 7A                  293 	ld	a,d
   00D0 23                  294 	inc	hl
   00D1 8E                  295 	adc	a,(hl)
   00D2 F8 03               296 	lda	hl,3(sp)
   00D4 32                  297 	ld      (hl-),a
   00D5 73                  298 	ld	(hl),e
                            299 ;	genMinus
                            300 ;	AOP_STK for _atol_sloc3_1_0
                            301 ;	AOP_STK for _atol_n_1_1
   00D6 2B                  302 	dec	hl
   00D7 2B                  303 	dec	hl
   00D8 5E                  304 	ld	e,(hl)
   00D9 23                  305 	inc	hl
   00DA 56                  306 	ld	d,(hl)
   00DB 7B                  307 	ld	a,e
   00DC D6 30               308 	sub	a,#0x30
   00DE 5F                  309 	ld	e,a
   00DF 7A                  310 	ld	a,d
   00E0 DE 00               311 	sbc	a,#0x00
   00E2 F5                  312 	push	af
   00E3 F8 11               313 	lda	hl,17(sp)
   00E5 32                  314 	ld      (hl-),a
   00E6 73                  315 	ld	(hl),e
   00E7 F8 04               316 	lda	hl,4(sp)
   00E9 5E                  317 	ld	e,(hl)
   00EA 23                  318 	inc	hl
   00EB 56                  319 	ld	d,(hl)
   00EC F1                  320 	pop	af
   00ED 7B                  321 	ld	a,e
   00EE DE 00               322 	sbc	a,#0x00
   00F0 5F                  323 	ld	e,a
   00F1 7A                  324 	ld	a,d
   00F2 DE 00               325 	sbc	a,#0x00
   00F4 F8 11               326 	lda	hl,17(sp)
   00F6 32                  327 	ld      (hl-),a
   00F7 73                  328 	ld	(hl),e
                            329 ;	atol.c 20
                            330 ;	genPlus
                            331 ;	AOP_STK for _atol_i_1_1
                            332 ;	genPlusIncr
   00F8 F8 13               333 	lda	hl,19(sp)
   00FA 34                  334 	inc	(hl)
                            335 ;	genGoto
   00FB C3r5Es00            336 	jp	00110$
                            337 ;	genLabel
   00FE                     338 00113$:
                            339 ;	atol.c 22
                            340 ;	genCmpEq
                            341 ;	AOP_STK for _atol_sign_1_1
                            342 ; genCmpEq: left 1, right 1, result 0
   00FE F8 12               343 	lda	hl,18(sp)
   0100 7E                  344 	ld	a,(hl)
   0101 B7                  345 	or	a,a
   0102 C2r1Es01            346 	jp	nz,00116$
   0105 18 03               347 	jr	00134$
   0107                     348 00133$:
   0107 C3r1Es01            349 	jp	00116$
   010A                     350 00134$:
                            351 ;	genAssign
                            352 ;	AOP_STK for _atol_n_1_1
                            353 ;	AOP_STK for _atol_sloc3_1_0
   010A F8 0E               354 	lda	hl,14(sp)
   010C 54                  355 	ld	d,h
   010D 5D                  356 	ld	e,l
   010E F8 00               357 	lda	hl,0(sp)
   0110 1A                  358 	ld	a,(de)
   0111 22                  359 	ld	(hl+),a
   0112 13                  360 	inc	de
   0113 1A                  361 	ld	a,(de)
   0114 22                  362 	ld	(hl+),a
   0115 13                  363 	inc	de
   0116 1A                  364 	ld	a,(de)
   0117 22                  365 	ld	(hl+),a
   0118 13                  366 	inc	de
   0119 1A                  367 	ld	a,(de)
   011A 77                  368 	ld	(hl),a
                            369 ;	genGoto
   011B C3r3Es01            370 	jp	00117$
                            371 ;	genLabel
   011E                     372 00116$:
                            373 ;	genUminus
                            374 ;	AOP_STK for _atol_n_1_1
                            375 ;	AOP_STK for _atol_sloc3_1_0
   011E 11 00 00            376 	ld      de,#0x0000
   0121 7B                  377 	ld	a,e
   0122 F8 0E               378 	lda	hl,14(sp)
   0124 96                  379 	sub	a,(hl)
   0125 5F                  380 	ld	e,a
   0126 7A                  381 	ld	a,d
   0127 23                  382 	inc	hl
   0128 9E                  383 	sbc	a,(hl)
   0129 F5                  384 	push	af
   012A F8 03               385 	lda	hl,3(sp)
   012C 32                  386 	ld      (hl-),a
   012D 73                  387 	ld	(hl),e
   012E 11 00 00            388 	ld      de,#0x0000
   0131 F8 12               389 	lda	hl,18(sp)
   0133 F1                  390 	pop	af
   0134 7B                  391 	ld	a,e
   0135 9E                  392 	sbc	a,(hl)
   0136 5F                  393 	ld	e,a
   0137 7A                  394 	ld	a,d
   0138 23                  395 	inc	hl
   0139 9E                  396 	sbc	a,(hl)
   013A F8 03               397 	lda	hl,3(sp)
   013C 32                  398 	ld      (hl-),a
   013D 73                  399 	ld	(hl),e
                            400 ;	genLabel
   013E                     401 00117$:
                            402 ;	genRet
                            403 ;	AOP_STK for _atol_sloc3_1_0
   013E F8 00               404 	lda	hl,0(sp)
   0140 5E                  405 	ld	e,(hl)
   0141 23                  406 	inc	hl
   0142 56                  407 	ld	d,(hl)
   0143 23                  408 	inc	hl
   0144 2A                  409 	ld	a,(hl+)
   0145 66                  410 	ld	h,(hl)
   0146 6F                  411 	ld	l,a
                            412 ;	genLabel
   0147                     413 00114$:
                            414 ;	genEndFunction
   0147 E8 14               415 	lda	sp,20(sp)
   0149 C9                  416 	ret
   014A                     417 ___atol_end:
                            418 	.area _CODE
                            419 ;--------------------------------------------------------
                            420 ; code
                            421 ;--------------------------------------------------------
                            422 	.area _CODE
                            423 	.area _CODE
