                              1 ;--------------------------------------------------------
                              2 ; File Created by SDCC : FreeWare ANSI-C Compiler
                              3 ; Version 2.3.1 Wed Sep 04 21:56:18 2019
                              4 
                              5 ;--------------------------------------------------------
                              6 	.module scanf
                              7 	
                              8 ;--------------------------------------------------------
                              9 ; Public variables in this module
                             10 ;--------------------------------------------------------
                             11 	.globl _scanf
                             12 ;--------------------------------------------------------
                             13 ; special function registers
                             14 ;--------------------------------------------------------
                             15 ;--------------------------------------------------------
                             16 ; special function bits 
                             17 ;--------------------------------------------------------
                             18 ;--------------------------------------------------------
                             19 ; internal ram data
                             20 ;--------------------------------------------------------
                             21 	.area _DATA
                             22 ;--------------------------------------------------------
                             23 ; overlayable items in internal ram 
                             24 ;--------------------------------------------------------
                             25 	.area _OVERLAY
                             26 ;--------------------------------------------------------
                             27 ; indirectly addressable internal ram data
                             28 ;--------------------------------------------------------
                             29 	.area _ISEG
                             30 ;--------------------------------------------------------
                             31 ; bit data
                             32 ;--------------------------------------------------------
                             33 	.area _BSEG
                             34 ;--------------------------------------------------------
                             35 ; external ram data
                             36 ;--------------------------------------------------------
                             37 	.area _XSEG
                             38 ;--------------------------------------------------------
                             39 ; global & static initialisations
                             40 ;--------------------------------------------------------
                             41 	.area _GSINIT
                             42 	.area _GSFINAL
                             43 	.area _GSINIT
                             44 ;--------------------------------------------------------
                             45 ; Home
                             46 ;--------------------------------------------------------
                             47 	.area _HOME
                             48 	.area _CODE
                             49 ;--------------------------------------------------------
                             50 ; code
                             51 ;--------------------------------------------------------
                             52 	.area _CODE
                             53 ;	scanf.c 5
                             54 ;	genLabel
                             55 ;	genFunction
                             56 ;	---------------------------------
                             57 ; Function scan_skip
                             58 ; ---------------------------------
   0000                      59 ___scan_skip_start:
   0000                      60 _scan_skip:
   0000 E8 FF                61 	lda	sp,-1(sp)
                             62 ;	scanf.c 8
                             63 ;	genLabel
   0002                      64 00102$:
                             65 ;	genPlus
                             66 ;	AOP_STK for 
                             67 ;	AOP_STK for 
                             68 ;	Can't optimise plus by inc, falling back to the normal way
   0002 F8 03                69 	lda	hl,3(sp)
   0004 5E                   70 	ld	e,(hl)
   0005 23                   71 	inc	hl
   0006 56                   72 	ld	d,(hl)
   0007 23                   73 	inc	hl
   0008 6E                   74 	ld	l,(hl)
   0009 26 00                75 	ld	h,#0x00
   000B 19                   76 	add	hl,de
   000C 4D                   77 	ld	c,l
   000D 44                   78 	ld	b,h
                             79 ;	genPointerGet
                             80 ;	AOP_STK for _scan_skip_sloc0_1_0
   000E 0A                   81 	ld	a,(bc)
   000F F8 00                82 	lda	hl,0(sp)
   0011 77                   83 	ld	(hl),a
                             84 ;	genIpush
                             85 ; _saveRegsForCall: sendSetSize: 0 deInUse: 0 bcInUse: 1 deSending: 0
   0012 C5                   86 	push	bc
                             87 ;	AOP_STK for _scan_skip_sloc0_1_0
   0013 7E                   88 	ld	a,(hl)
   0014 F5                   89 	push	af
   0015 33                   90 	inc	sp
                             91 ;	genCall
   0016 CDr00s00             92 	call	_isspace
                             93 ;	AOP_STK for _scan_skip_sloc0_1_0
   0019 F8 03                94 	lda	hl,3(sp)
   001B 73                   95 	ld	(hl),e
   001C E8 01                96 	lda	sp,1(sp)
   001E C1                   97 	pop	bc
                             98 ;	genIfx
                             99 ;	AOP_STK for _scan_skip_sloc0_1_0
   001F AF                  100 	xor	a,a
   0020 F8 00               101 	lda	hl,0(sp)
   0022 B6                  102 	or	a,(hl)
   0023 CAr34s00            103 	jp	z,00104$
                            104 ;	scanf.c 9
                            105 ;	genAssign
                            106 ;	AOP_STK for 
                            107 ;	AOP_STK for _scan_skip_sloc0_1_0
   0026 F8 05               108 	lda	hl,5(sp)
   0028 7E                  109 	ld	a,(hl)
   0029 F8 00               110 	lda	hl,0(sp)
                            111 ;	genPlus
                            112 ;	AOP_STK for _scan_skip_sloc0_1_0
                            113 ;	AOP_STK for 
                            114 ;	genPlusIncr
                            115 ;	Can't optimise plus by inc, falling back to the normal way
   002B 77                  116 	ld      (hl),a
                            117 ; Removed redundent load
   002C C6 01               118 	add	a,#0x01
   002E F8 05               119 	lda	hl,5(sp)
   0030 77                  120 	ld	(hl),a
                            121 ;	genGoto
   0031 C3r02s00            122 	jp	00102$
                            123 ;	genLabel
   0034                     124 00104$:
                            125 ;	scanf.c 10
                            126 ;	genPointerGet
   0034 0A                  127 	ld	a,(bc)
                            128 ;	genCmpEq
                            129 ; genCmpEq: left 1, right 1, result 0
   0035 4F                  130 	ld	c,a
   0036 B7                  131 	or	a,a
   0037 C2r51s00            132 	jp	nz,00106$
   003A 18 03               133 	jr	00113$
   003C                     134 00112$:
   003C C3r51s00            135 	jp	00106$
   003F                     136 00113$:
                            137 ;	scanf.c 11
                            138 ;	genIpush
                            139 ; _saveRegsForCall: sendSetSize: 0 deInUse: 0 bcInUse: 0 deSending: 0
                            140 ;	AOP_STK for 
   003F F8 03               141 	lda	hl,3(sp)
   0041 2A                  142 	ld	a,(hl+)
   0042 66                  143 	ld	h,(hl)
   0043 6F                  144 	ld	l,a
   0044 E5                  145 	push	hl
                            146 ;	genCall
   0045 CDr00s00            147 	call	_gets
   0048 E8 02               148 	lda	sp,2(sp)
                            149 ;	scanf.c 12
                            150 ;	genAssign
                            151 ;	AOP_STK for 
   004A F8 05               152 	lda	hl,5(sp)
   004C 36 00               153 	ld	(hl),#0x00
                            154 ;	scanf.c 13
                            155 ;	genGoto
   004E C3r02s00            156 	jp	00102$
                            157 ;	genLabel
   0051                     158 00106$:
                            159 ;	scanf.c 15
                            160 ;	genRet
                            161 ;	AOP_STK for 
   0051 F8 05               162 	lda	hl,5(sp)
   0053 5E                  163 	ld	e,(hl)
                            164 ;	genLabel
   0054                     165 00107$:
                            166 ;	genEndFunction
   0054 E8 01               167 	lda	sp,1(sp)
   0056 C9                  168 	ret
   0057                     169 ___scan_skip_end:
                            170 ;	scanf.c 18
                            171 ;	genLabel
                            172 ;	genFunction
                            173 ;	---------------------------------
                            174 ; Function scan_int
                            175 ; ---------------------------------
   0057                     176 ___scan_int_start:
   0057                     177 _scan_int:
   0057 E8 FB               178 	lda	sp,-5(sp)
                            179 ;	scanf.c 20
                            180 ;	genAssign
                            181 ;	AOP_STK for _scan_int_n_1_1
   0059 F8 04               182 	lda	hl,4(sp)
   005B 36 00               183 	ld	(hl),#0x00
                            184 ;	scanf.c 21
                            185 ;	genAssign
                            186 ;	AOP_STK for _scan_int_sign_1_1
   005D 2B                  187 	dec	hl
   005E 2B                  188 	dec	hl
   005F 36 00               189 	ld	(hl),#0x00
                            190 ;	scanf.c 23
                            191 ;	genPlus
                            192 ;	AOP_STK for 
                            193 ;	AOP_STK for 
                            194 ;	Can't optimise plus by inc, falling back to the normal way
   0061 F8 07               195 	lda	hl,7(sp)
   0063 5E                  196 	ld	e,(hl)
   0064 23                  197 	inc	hl
   0065 56                  198 	ld	d,(hl)
   0066 23                  199 	inc	hl
   0067 6E                  200 	ld	l,(hl)
   0068 26 00               201 	ld	h,#0x00
   006A 19                  202 	add	hl,de
   006B 45                  203 	ld	b,l
   006C 4C                  204 	ld	c,h
                            205 ;	genPointerGet
   006D 58                  206 	ld	e,b
   006E 51                  207 	ld	d,c
   006F 1A                  208 	ld	a,(de)
                            209 ;	genCmpEq
                            210 ; genCmpEq: left 1, right 1, result 0
   0070 4F                  211 	ld	c,a
   0071 FE 2B               212 	cp	a,#0x2B
   0073 CAr85s00            213 	jp	z,00102$
   0076                     214 00126$:
                            215 ;	genCmpEq
                            216 ; genCmpEq: left 1, right 1, result 0
   0076 79                  217 	ld	a,c
   0077 FE 2D               218 	cp	a,#0x2D
   0079 C2r88s00            219 	jp	nz,00124$
   007C 18 03               220 	jr	00128$
   007E                     221 00127$:
   007E C3r88s00            222 	jp	00124$
   0081                     223 00128$:
                            224 ;	scanf.c 26
                            225 ;	genAssign
                            226 ;	AOP_STK for _scan_int_sign_1_1
   0081 F8 02               227 	lda	hl,2(sp)
   0083 36 01               228 	ld	(hl),#0x01
                            229 ;	scanf.c 29
                            230 ;	genLabel
   0085                     231 00102$:
                            232 ;	genPlus
                            233 ;	AOP_STK for 
                            234 ;	genPlusIncr
   0085 F8 09               235 	lda	hl,9(sp)
   0087 34                  236 	inc	(hl)
                            237 ;	scanf.c 32
                            238 ;	genLabel
   0088                     239 00124$:
                            240 ;	genAssign
                            241 ;	(operands are equal 3)
                            242 ;	genLabel
   0088                     243 00113$:
                            244 ;	scanf.c 33
                            245 ;	genPlus
                            246 ;	AOP_STK for 
                            247 ;	AOP_STK for 
                            248 ;	AOP_STK for _scan_int_sloc0_1_0
                            249 ;	Can't optimise plus by inc, falling back to the normal way
   0088 F8 07               250 	lda	hl,7(sp)
   008A 5E                  251 	ld	e,(hl)
   008B 23                  252 	inc	hl
   008C 56                  253 	ld	d,(hl)
   008D 23                  254 	inc	hl
   008E 6E                  255 	ld	l,(hl)
   008F 26 00               256 	ld	h,#0x00
   0091 19                  257 	add	hl,de
   0092 7D                  258 	ld	a,l
   0093 54                  259 	ld	d,h
   0094 F8 00               260 	lda	hl,0(sp)
                            261 ;	genPointerGet
                            262 ;	AOP_STK for _scan_int_sloc0_1_0
   0096 22                  263 	ld	(hl+),a
   0097 72                  264 	ld	(hl),d
   0098 5F                  265 	ld	e,a
   0099 1A                  266 	ld	a,(de)
                            267 ;	genIpush
                            268 ; _saveRegsForCall: sendSetSize: 0 deInUse: 0 bcInUse: 0 deSending: 0
   009A 47                  269 	ld	b,a
   009B F5                  270 	push	af
   009C 33                  271 	inc	sp
                            272 ;	genCall
   009D CDr00s00            273 	call	_isdigit
   00A0 43                  274 	ld	b,e
   00A1 E8 01               275 	lda	sp,1(sp)
                            276 ;	genIfx
   00A3 AF                  277 	xor	a,a
   00A4 B0                  278 	or	a,b
   00A5 CArB7s00            279 	jp	z,00108$
                            280 ;	scanf.c 34
                            281 ;	genPointerGet
                            282 ;	AOP_STK for _scan_int_sloc0_1_0
   00A8 F8 00               283 	lda	hl,0(sp)
   00AA 5E                  284 	ld	e,(hl)
   00AB 23                  285 	inc	hl
   00AC 56                  286 	ld	d,(hl)
   00AD 1A                  287 	ld	a,(de)
                            288 ;	genMinus
                            289 ;	AOP_STK for _scan_int_j_1_1
   00AE 47                  290 	ld	b,a
   00AF C6 D0               291 	add	a,#0xD0
   00B1 23                  292 	inc	hl
   00B2 23                  293 	inc	hl
   00B3 77                  294 	ld	(hl),a
                            295 ;	genGoto
   00B4 C3rE3s00            296 	jp	00109$
                            297 ;	genLabel
   00B7                     298 00108$:
                            299 ;	scanf.c 35
                            300 ;	genPointerGet
                            301 ;	AOP_STK for _scan_int_sloc0_1_0
   00B7 F8 00               302 	lda	hl,0(sp)
   00B9 5E                  303 	ld	e,(hl)
   00BA 23                  304 	inc	hl
   00BB 56                  305 	ld	d,(hl)
   00BC 1A                  306 	ld	a,(de)
                            307 ;	genIpush
                            308 ; _saveRegsForCall: sendSetSize: 0 deInUse: 0 bcInUse: 0 deSending: 0
   00BD 47                  309 	ld	b,a
   00BE F5                  310 	push	af
   00BF 33                  311 	inc	sp
                            312 ;	genCall
   00C0 CDr00s00            313 	call	_isalpha
   00C3 43                  314 	ld	b,e
   00C4 E8 01               315 	lda	sp,1(sp)
                            316 ;	genIfx
   00C6 AF                  317 	xor	a,a
   00C7 B0                  318 	or	a,b
   00C8 CAr18s01            319 	jp	z,00114$
                            320 ;	scanf.c 36
                            321 ;	genPointerGet
                            322 ;	AOP_STK for _scan_int_sloc0_1_0
   00CB F8 00               323 	lda	hl,0(sp)
   00CD 5E                  324 	ld	e,(hl)
   00CE 23                  325 	inc	hl
   00CF 56                  326 	ld	d,(hl)
   00D0 1A                  327 	ld	a,(de)
                            328 ;	genIpush
                            329 ; _saveRegsForCall: sendSetSize: 0 deInUse: 0 bcInUse: 0 deSending: 0
   00D1 47                  330 	ld	b,a
   00D2 F5                  331 	push	af
   00D3 33                  332 	inc	sp
                            333 ;	genCall
   00D4 CDr00s00            334 	call	_toupper
   00D7 43                  335 	ld	b,e
   00D8 E8 01               336 	lda	sp,1(sp)
                            337 ;	genMinus
   00DA 78                  338 	ld	a,b
   00DB C6 BF               339 	add	a,#0xBF
                            340 ;	genPlus
                            341 ;	AOP_STK for _scan_int_j_1_1
                            342 ;	genPlusIncr
                            343 ;	Can't optimise plus by inc, falling back to the normal way
   00DD 47                  344 	ld	b,a
   00DE C6 0A               345 	add	a,#0x0A
   00E0 F8 03               346 	lda	hl,3(sp)
   00E2 77                  347 	ld	(hl),a
                            348 ;	scanf.c 38
                            349 ;	genLabel
   00E3                     350 00109$:
                            351 ;	scanf.c 39
                            352 ;	genCmpLt
                            353 ;	AOP_STK for _scan_int_j_1_1
                            354 ;	AOP_STK for 
   00E3 F8 03               355 	lda	hl,3(sp)
   00E5 7E                  356 	ld	a,(hl)
   00E6 F8 0A               357 	lda	hl,10(sp)
   00E8 96                  358 	sub	a,(hl)
   00E9 D2r18s01            359 	jp	nc,00114$
                            360 ;	scanf.c 41
                            361 ;	genAssign
                            362 ;	AOP_STK for _scan_int_n_1_1
   00EC F8 04               363 	lda	hl,4(sp)
   00EE 46                  364 	ld	b,(hl)
                            365 ;	genIpush
                            366 ; _saveRegsForCall: sendSetSize: 0 deInUse: 0 bcInUse: 0 deSending: 0
   00EF 78                  367 	ld	a,b
   00F0 F5                  368 	push	af
   00F1 33                  369 	inc	sp
                            370 ;	genIpush
                            371 ;	AOP_STK for 
   00F2 F8 0B               372 	lda	hl,11(sp)
   00F4 7E                  373 	ld	a,(hl)
   00F5 F5                  374 	push	af
   00F6 33                  375 	inc	sp
                            376 ;	genCall
   00F7 CDr00s00            377 	call	__muluchar_rrx_s
   00FA 4A                  378 	ld	c,d
   00FB 43                  379 	ld	b,e
   00FC E8 02               380 	lda	sp,2(sp)
                            381 ;	genCast
                            382 ;	AOP_STK for _scan_int_j_1_1
                            383 ;	AOP_STK for _scan_int_sloc0_1_0
   00FE F8 03               384 	lda	hl,3(sp)
   0100 7E                  385 	ld	a,(hl)
   0101 F8 00               386 	lda	hl,0(sp)
   0103 22                  387 	ld	(hl+),a
   0104 36 00               388 	ld	(hl),#0x00
                            389 ;	genPlus
                            390 ;	AOP_STK for _scan_int_sloc0_1_0
                            391 ;	Can't optimise plus by inc, falling back to the normal way
   0106 58                  392 	ld	e,b
   0107 51                  393 	ld	d,c
   0108 2B                  394 	dec	hl
   0109 2A                  395 	ld	a,(hl+)
   010A 66                  396 	ld	h,(hl)
   010B 6F                  397 	ld	l,a
   010C 19                  398 	add	hl,de
   010D 45                  399 	ld	b,l
   010E 4C                  400 	ld	c,h
                            401 ;	genCast
                            402 ;	AOP_STK for _scan_int_n_1_1
   010F F8 04               403 	lda	hl,4(sp)
   0111 70                  404 	ld	(hl),b
                            405 ;	scanf.c 42
                            406 ;	genPlus
                            407 ;	AOP_STK for 
                            408 ;	genPlusIncr
   0112 F8 09               409 	lda	hl,9(sp)
   0114 34                  410 	inc	(hl)
                            411 ;	genGoto
   0115 C3r88s00            412 	jp	00113$
                            413 ;	genLabel
   0118                     414 00114$:
                            415 ;	scanf.c 44
                            416 ;	genAssign
                            417 ;	AOP_STK for 
   0118 F8 0B               418 	lda	hl,11(sp)
   011A 4E                  419 	ld	c,(hl)
   011B 23                  420 	inc	hl
   011C 46                  421 	ld	b,(hl)
                            422 ;	genCmpEq
                            423 ;	AOP_STK for _scan_int_sign_1_1
                            424 ; genCmpEq: left 1, right 1, result 0
   011D F8 02               425 	lda	hl,2(sp)
   011F 7E                  426 	ld	a,(hl)
   0120 B7                  427 	or	a,a
   0121 C2r32s01            428 	jp	nz,00117$
   0124 18 03               429 	jr	00130$
   0126                     430 00129$:
   0126 C3r32s01            431 	jp	00117$
   0129                     432 00130$:
                            433 ;	genAssign
                            434 ;	AOP_STK for _scan_int_n_1_1
                            435 ;	AOP_STK for _scan_int_sloc0_1_0
   0129 F8 04               436 	lda	hl,4(sp)
   012B 7E                  437 	ld	a,(hl)
   012C F8 00               438 	lda	hl,0(sp)
   012E 77                  439 	ld	(hl),a
                            440 ;	genGoto
   012F C3r3Bs01            441 	jp	00118$
                            442 ;	genLabel
   0132                     443 00117$:
                            444 ;	genUminus
                            445 ;	AOP_STK for _scan_int_n_1_1
                            446 ;	AOP_STK for _scan_int_sloc0_1_0
   0132 AF                  447 	xor	a,a
   0133 F8 04               448 	lda	hl,4(sp)
   0135 3E 00               449 	ld	a,#0x00
   0137 9E                  450 	sbc	a,(hl)
   0138 F8 00               451 	lda	hl,0(sp)
   013A 77                  452 	ld	(hl),a
                            453 ;	genLabel
   013B                     454 00118$:
                            455 ;	genAssign (pointer)
                            456 ;	AOP_STK for _scan_int_sloc0_1_0
   013B F8 00               457 	lda	hl,0(sp)
   013D 7E                  458 	ld	a,(hl)
   013E 02                  459 	ld	(bc),a
                            460 ;	scanf.c 45
                            461 ;	genRet
                            462 ;	AOP_STK for 
   013F F8 09               463 	lda	hl,9(sp)
   0141 5E                  464 	ld	e,(hl)
                            465 ;	genLabel
   0142                     466 00115$:
                            467 ;	genEndFunction
   0142 E8 05               468 	lda	sp,5(sp)
   0144 C9                  469 	ret
   0145                     470 ___scan_int_end:
                            471 ;	scanf.c 48
                            472 ;	genLabel
                            473 ;	genFunction
                            474 ;	---------------------------------
                            475 ; Function scan_long
                            476 ; ---------------------------------
   0145                     477 ___scan_long_start:
   0145                     478 _scan_long:
   0145 E8 FA               479 	lda	sp,-6(sp)
                            480 ;	scanf.c 50
                            481 ;	genAssign
                            482 ;	AOP_STK for _scan_long_n_1_1
   0147 F8 04               483 	lda	hl,4(sp)
   0149 36 00               484 	ld	(hl),#0x00
   014B 23                  485 	inc	hl
   014C 36 00               486 	ld	(hl),#0x00
                            487 ;	scanf.c 51
                            488 ;	genAssign
                            489 ;	AOP_STK for _scan_long_sign_1_1
   014E F8 02               490 	lda	hl,2(sp)
   0150 36 00               491 	ld	(hl),#0x00
                            492 ;	scanf.c 53
                            493 ;	genPlus
                            494 ;	AOP_STK for 
                            495 ;	AOP_STK for 
                            496 ;	Can't optimise plus by inc, falling back to the normal way
   0152 F8 08               497 	lda	hl,8(sp)
   0154 5E                  498 	ld	e,(hl)
   0155 23                  499 	inc	hl
   0156 56                  500 	ld	d,(hl)
   0157 23                  501 	inc	hl
   0158 6E                  502 	ld	l,(hl)
   0159 26 00               503 	ld	h,#0x00
   015B 19                  504 	add	hl,de
   015C 4D                  505 	ld	c,l
   015D 44                  506 	ld	b,h
                            507 ;	genPointerGet
   015E 0A                  508 	ld	a,(bc)
                            509 ;	genCmpEq
                            510 ; genCmpEq: left 1, right 1, result 0
   015F 4F                  511 	ld	c,a
   0160 FE 2B               512 	cp	a,#0x2B
   0162 CAr74s01            513 	jp	z,00102$
   0165                     514 00126$:
                            515 ;	genCmpEq
                            516 ; genCmpEq: left 1, right 1, result 0
   0165 79                  517 	ld	a,c
   0166 FE 2D               518 	cp	a,#0x2D
   0168 C2r77s01            519 	jp	nz,00124$
   016B 18 03               520 	jr	00128$
   016D                     521 00127$:
   016D C3r77s01            522 	jp	00124$
   0170                     523 00128$:
                            524 ;	scanf.c 56
                            525 ;	genAssign
                            526 ;	AOP_STK for _scan_long_sign_1_1
   0170 F8 02               527 	lda	hl,2(sp)
   0172 36 01               528 	ld	(hl),#0x01
                            529 ;	scanf.c 59
                            530 ;	genLabel
   0174                     531 00102$:
                            532 ;	genPlus
                            533 ;	AOP_STK for 
                            534 ;	genPlusIncr
   0174 F8 0A               535 	lda	hl,10(sp)
   0176 34                  536 	inc	(hl)
                            537 ;	scanf.c 62
                            538 ;	genLabel
   0177                     539 00124$:
                            540 ;	genAssign
                            541 ;	(operands are equal 3)
                            542 ;	genLabel
   0177                     543 00113$:
                            544 ;	scanf.c 63
                            545 ;	genPlus
                            546 ;	AOP_STK for 
                            547 ;	AOP_STK for 
                            548 ;	AOP_STK for _scan_long_sloc0_1_0
                            549 ;	Can't optimise plus by inc, falling back to the normal way
   0177 F8 08               550 	lda	hl,8(sp)
   0179 5E                  551 	ld	e,(hl)
   017A 23                  552 	inc	hl
   017B 56                  553 	ld	d,(hl)
   017C 23                  554 	inc	hl
   017D 6E                  555 	ld	l,(hl)
   017E 26 00               556 	ld	h,#0x00
   0180 19                  557 	add	hl,de
   0181 7D                  558 	ld	a,l
   0182 54                  559 	ld	d,h
   0183 F8 00               560 	lda	hl,0(sp)
                            561 ;	genPointerGet
                            562 ;	AOP_STK for _scan_long_sloc0_1_0
   0185 22                  563 	ld	(hl+),a
   0186 72                  564 	ld	(hl),d
   0187 5F                  565 	ld	e,a
   0188 1A                  566 	ld	a,(de)
                            567 ;	genIpush
                            568 ; _saveRegsForCall: sendSetSize: 0 deInUse: 0 bcInUse: 0 deSending: 0
   0189 47                  569 	ld	b,a
   018A F5                  570 	push	af
   018B 33                  571 	inc	sp
                            572 ;	genCall
   018C CDr00s00            573 	call	_isdigit
   018F 43                  574 	ld	b,e
   0190 E8 01               575 	lda	sp,1(sp)
                            576 ;	genIfx
   0192 AF                  577 	xor	a,a
   0193 B0                  578 	or	a,b
   0194 CArA6s01            579 	jp	z,00108$
                            580 ;	scanf.c 64
                            581 ;	genPointerGet
                            582 ;	AOP_STK for _scan_long_sloc0_1_0
   0197 F8 00               583 	lda	hl,0(sp)
   0199 5E                  584 	ld	e,(hl)
   019A 23                  585 	inc	hl
   019B 56                  586 	ld	d,(hl)
   019C 1A                  587 	ld	a,(de)
                            588 ;	genMinus
                            589 ;	AOP_STK for _scan_long_j_1_1
   019D 47                  590 	ld	b,a
   019E C6 D0               591 	add	a,#0xD0
   01A0 23                  592 	inc	hl
   01A1 23                  593 	inc	hl
   01A2 77                  594 	ld	(hl),a
                            595 ;	genGoto
   01A3 C3rD2s01            596 	jp	00109$
                            597 ;	genLabel
   01A6                     598 00108$:
                            599 ;	scanf.c 65
                            600 ;	genPointerGet
                            601 ;	AOP_STK for _scan_long_sloc0_1_0
   01A6 F8 00               602 	lda	hl,0(sp)
   01A8 5E                  603 	ld	e,(hl)
   01A9 23                  604 	inc	hl
   01AA 56                  605 	ld	d,(hl)
   01AB 1A                  606 	ld	a,(de)
                            607 ;	genIpush
                            608 ; _saveRegsForCall: sendSetSize: 0 deInUse: 0 bcInUse: 0 deSending: 0
   01AC 47                  609 	ld	b,a
   01AD F5                  610 	push	af
   01AE 33                  611 	inc	sp
                            612 ;	genCall
   01AF CDr00s00            613 	call	_isalpha
   01B2 43                  614 	ld	b,e
   01B3 E8 01               615 	lda	sp,1(sp)
                            616 ;	genIfx
   01B5 AF                  617 	xor	a,a
   01B6 B0                  618 	or	a,b
   01B7 CAr0Es02            619 	jp	z,00114$
                            620 ;	scanf.c 66
                            621 ;	genPointerGet
                            622 ;	AOP_STK for _scan_long_sloc0_1_0
   01BA F8 00               623 	lda	hl,0(sp)
   01BC 5E                  624 	ld	e,(hl)
   01BD 23                  625 	inc	hl
   01BE 56                  626 	ld	d,(hl)
   01BF 1A                  627 	ld	a,(de)
                            628 ;	genIpush
                            629 ; _saveRegsForCall: sendSetSize: 0 deInUse: 0 bcInUse: 0 deSending: 0
   01C0 47                  630 	ld	b,a
   01C1 F5                  631 	push	af
   01C2 33                  632 	inc	sp
                            633 ;	genCall
   01C3 CDr00s00            634 	call	_toupper
   01C6 43                  635 	ld	b,e
   01C7 E8 01               636 	lda	sp,1(sp)
                            637 ;	genMinus
   01C9 78                  638 	ld	a,b
   01CA C6 BF               639 	add	a,#0xBF
                            640 ;	genPlus
                            641 ;	AOP_STK for _scan_long_j_1_1
                            642 ;	genPlusIncr
                            643 ;	Can't optimise plus by inc, falling back to the normal way
   01CC 47                  644 	ld	b,a
   01CD C6 0A               645 	add	a,#0x0A
   01CF F8 03               646 	lda	hl,3(sp)
   01D1 77                  647 	ld	(hl),a
                            648 ;	scanf.c 68
                            649 ;	genLabel
   01D2                     650 00109$:
                            651 ;	scanf.c 69
                            652 ;	genCmpLt
                            653 ;	AOP_STK for _scan_long_j_1_1
                            654 ;	AOP_STK for 
   01D2 F8 03               655 	lda	hl,3(sp)
   01D4 7E                  656 	ld	a,(hl)
   01D5 F8 0B               657 	lda	hl,11(sp)
   01D7 96                  658 	sub	a,(hl)
   01D8 D2r0Es02            659 	jp	nc,00114$
                            660 ;	scanf.c 71
                            661 ;	genCast
                            662 ;	AOP_STK for 
                            663 ;	AOP_STK for _scan_long_sloc0_1_0
   01DB 7E                  664 	ld	a,(hl)
   01DC F8 00               665 	lda	hl,0(sp)
   01DE 22                  666 	ld	(hl+),a
   01DF 36 00               667 	ld	(hl),#0x00
                            668 ;	genAssign
                            669 ;	AOP_STK for _scan_long_n_1_1
   01E1 F8 04               670 	lda	hl,4(sp)
   01E3 4E                  671 	ld	c,(hl)
   01E4 23                  672 	inc	hl
   01E5 46                  673 	ld	b,(hl)
                            674 ;	genIpush
                            675 ; _saveRegsForCall: sendSetSize: 0 deInUse: 0 bcInUse: 0 deSending: 0
   01E6 C5                  676 	push	bc
                            677 ;	genIpush
                            678 ;	AOP_STK for _scan_long_sloc0_1_0
   01E7 F8 02               679 	lda	hl,2(sp)
   01E9 2A                  680 	ld	a,(hl+)
   01EA 66                  681 	ld	h,(hl)
   01EB 6F                  682 	ld	l,a
   01EC E5                  683 	push	hl
                            684 ;	genCall
   01ED CDr00s00            685 	call	__muluint_rrx_s
   01F0 42                  686 	ld	b,d
   01F1 4B                  687 	ld	c,e
   01F2 E8 04               688 	lda	sp,4(sp)
                            689 ;	genCast
                            690 ;	AOP_STK for _scan_long_j_1_1
                            691 ;	AOP_STK for _scan_long_sloc0_1_0
   01F4 F8 03               692 	lda	hl,3(sp)
   01F6 7E                  693 	ld	a,(hl)
   01F7 F8 00               694 	lda	hl,0(sp)
   01F9 22                  695 	ld	(hl+),a
   01FA 36 00               696 	ld	(hl),#0x00
                            697 ;	genPlus
                            698 ;	AOP_STK for _scan_long_sloc0_1_0
                            699 ;	Can't optimise plus by inc, falling back to the normal way
   01FC 2B                  700 	dec	hl
   01FD 2A                  701 	ld	a,(hl+)
   01FE 66                  702 	ld	h,(hl)
   01FF 6F                  703 	ld	l,a
   0200 09                  704 	add	hl,bc
   0201 4D                  705 	ld	c,l
   0202 44                  706 	ld	b,h
                            707 ;	genAssign
                            708 ;	AOP_STK for _scan_long_n_1_1
   0203 F8 04               709 	lda	hl,4(sp)
   0205 71                  710 	ld	(hl),c
   0206 23                  711 	inc	hl
   0207 70                  712 	ld	(hl),b
                            713 ;	scanf.c 72
                            714 ;	genPlus
                            715 ;	AOP_STK for 
                            716 ;	genPlusIncr
   0208 F8 0A               717 	lda	hl,10(sp)
   020A 34                  718 	inc	(hl)
                            719 ;	genGoto
   020B C3r77s01            720 	jp	00113$
                            721 ;	genLabel
   020E                     722 00114$:
                            723 ;	scanf.c 74
                            724 ;	genAssign
                            725 ;	AOP_STK for 
   020E F8 0C               726 	lda	hl,12(sp)
   0210 4E                  727 	ld	c,(hl)
   0211 23                  728 	inc	hl
   0212 46                  729 	ld	b,(hl)
                            730 ;	genCmpEq
                            731 ;	AOP_STK for _scan_long_sign_1_1
                            732 ; genCmpEq: left 1, right 1, result 0
   0213 F8 02               733 	lda	hl,2(sp)
   0215 7E                  734 	ld	a,(hl)
   0216 B7                  735 	or	a,a
   0217 C2r2As02            736 	jp	nz,00117$
   021A 18 03               737 	jr	00130$
   021C                     738 00129$:
   021C C3r2As02            739 	jp	00117$
   021F                     740 00130$:
                            741 ;	genAssign
                            742 ;	AOP_STK for _scan_long_n_1_1
                            743 ;	AOP_STK for _scan_long_sloc0_1_0
   021F F8 04               744 	lda	hl,4(sp)
   0221 2A                  745 	ld	a,(hl+)
   0222 5E                  746 	ld	e,(hl)
   0223 F8 00               747 	lda	hl,0(sp)
   0225 22                  748 	ld	(hl+),a
   0226 73                  749 	ld	(hl),e
                            750 ;	genGoto
   0227 C3r3Bs02            751 	jp	00118$
                            752 ;	genLabel
   022A                     753 00117$:
                            754 ;	genUminus
                            755 ;	AOP_STK for _scan_long_n_1_1
                            756 ;	AOP_STK for _scan_long_sloc0_1_0
   022A AF                  757 	xor	a,a
   022B F8 04               758 	lda	hl,4(sp)
   022D 3E 00               759 	ld	a,#0x00
   022F 9E                  760 	sbc	a,(hl)
   0230 F8 00               761 	lda	hl,0(sp)
   0232 77                  762 	ld	(hl),a
   0233 F8 05               763 	lda	hl,5(sp)
   0235 3E 00               764 	ld	a,#0x00
   0237 9E                  765 	sbc	a,(hl)
   0238 F8 01               766 	lda	hl,1(sp)
   023A 77                  767 	ld	(hl),a
                            768 ;	genLabel
   023B                     769 00118$:
                            770 ;	genAssign (pointer)
                            771 ;	AOP_STK for _scan_long_sloc0_1_0
   023B 59                  772 	ld	e,c
   023C 50                  773 	ld	d,b
   023D F8 00               774 	lda	hl,0(sp)
   023F 7E                  775 	ld	a,(hl)
   0240 12                  776 	ld	(de),a
   0241 13                  777 	inc	de
   0242 23                  778 	inc	hl
   0243 7E                  779 	ld	a,(hl)
   0244 12                  780 	ld	(de),a
                            781 ;	scanf.c 75
                            782 ;	genRet
                            783 ;	AOP_STK for 
   0245 F8 0A               784 	lda	hl,10(sp)
   0247 5E                  785 	ld	e,(hl)
                            786 ;	genLabel
   0248                     787 00115$:
                            788 ;	genEndFunction
   0248 E8 06               789 	lda	sp,6(sp)
   024A C9                  790 	ret
   024B                     791 ___scan_long_end:
                            792 ;	scanf.c 78
                            793 ;	genLabel
                            794 ;	genFunction
                            795 ;	---------------------------------
                            796 ; Function scanf
                            797 ; ---------------------------------
   024B                     798 ___scanf_start:
   024B                     799 _scanf:
   024B E8 AD               800 	lda	sp,-83(sp)
                            801 ;	scanf.c 82
                            802 ;	genAssign
                            803 ;	AOP_STK for _scanf_i_1_1
   024D F8 10               804 	lda	hl,16(sp)
   024F 36 00               805 	ld	(hl),#0x00
                            806 ;	scanf.c 83
                            807 ;	genAssign
                            808 ;	AOP_STK for _scanf_nb_1_1
   0251 2B                  809 	dec	hl
   0252 36 00               810 	ld	(hl),#0x00
                            811 ;	scanf.c 85
                            812 ;	genAddrOf
   0254 F8 11               813 	lda	hl,17(sp)
   0256 45                  814 	ld	b,l
   0257 4C                  815 	ld	c,h
                            816 ;	genIpush
                            817 ; _saveRegsForCall: sendSetSize: 0 deInUse: 0 bcInUse: 1 deSending: 0
   0258 C5                  818 	push	bc
   0259 68                  819 	ld	l,b
   025A 61                  820 	ld	h,c
   025B E5                  821 	push	hl
                            822 ;	genCall
   025C CDr00s00            823 	call	_gets
   025F E8 02               824 	lda	sp,2(sp)
   0261 C1                  825 	pop	bc
                            826 ;	scanf.c 86
                            827 ;	genAddrOf
                            828 ;	AOP_STK for _scanf_sloc0_1_0
   0262 F8 55               829 	lda	hl,85(sp)
   0264 7D                  830 	ld	a,l
   0265 54                  831 	ld	d,h
   0266 F8 0A               832 	lda	hl,10(sp)
   0268 22                  833 	ld	(hl+),a
   0269 72                  834 	ld	(hl),d
                            835 ;	genPlus
                            836 ;	AOP_STK for _scanf_sloc0_1_0
                            837 ;	AOP_STK for _scanf_ap_1_1
                            838 ;	genPlusIncr
                            839 ;	Can't optimise plus by inc, falling back to the normal way
   026A 2B                  840 	dec	hl
   026B 5E                  841 	ld	e,(hl)
   026C 23                  842 	inc	hl
   026D 56                  843 	ld	d,(hl)
   026E 21 02 00            844 	ld	hl,#0x0002
   0271 19                  845 	add	hl,de
   0272 7D                  846 	ld	a,l
   0273 54                  847 	ld	d,h
   0274 F8 51               848 	lda	hl,81(sp)
   0276 22                  849 	ld	(hl+),a
   0277 72                  850 	ld	(hl),d
                            851 ;	genAssign
                            852 ;	AOP_STK for _scanf_nb_1_1
   0278 F8 0F               853 	lda	hl,15(sp)
   027A 36 00               854 	ld	(hl),#0x00
                            855 ;	genLabel
   027C                     856 00127$:
                            857 ;	scanf.c 87
                            858 ;	genAssign
                            859 ;	AOP_STK for 
                            860 ;	AOP_STK for _scanf_sloc0_1_0
   027C F8 55               861 	lda	hl,85(sp)
   027E 2A                  862 	ld	a,(hl+)
   027F 5E                  863 	ld	e,(hl)
   0280 F8 0A               864 	lda	hl,10(sp)
   0282 22                  865 	ld	(hl+),a
   0283 73                  866 	ld	(hl),e
                            867 ;	genPointerGet
                            868 ;	AOP_STK for _scanf_sloc0_1_0
                            869 ;	AOP_STK for _scanf_sloc1_1_0
   0284 2B                  870 	dec	hl
   0285 5E                  871 	ld	e,(hl)
   0286 23                  872 	inc	hl
   0287 56                  873 	ld	d,(hl)
   0288 1A                  874 	ld	a,(de)
   0289 2B                  875 	dec	hl
   028A 2B                  876 	dec	hl
   028B 77                  877 	ld	(hl),a
                            878 ;	genIfx
                            879 ;	AOP_STK for _scanf_sloc1_1_0
   028C AF                  880 	xor	a,a
   028D B6                  881 	or	a,(hl)
   028E CAr62s06            882 	jp	z,00130$
                            883 ;	scanf.c 88
                            884 ;	genIpush
                            885 ; _saveRegsForCall: sendSetSize: 0 deInUse: 0 bcInUse: 1 deSending: 0
   0291 C5                  886 	push	bc
                            887 ;	AOP_STK for _scanf_sloc1_1_0
   0292 7E                  888 	ld	a,(hl)
   0293 F5                  889 	push	af
   0294 33                  890 	inc	sp
                            891 ;	genCall
   0295 CDr00s00            892 	call	_isspace
                            893 ;	AOP_STK for _scanf_sloc1_1_0
   0298 F8 0C               894 	lda	hl,12(sp)
   029A 73                  895 	ld	(hl),e
   029B E8 01               896 	lda	sp,1(sp)
   029D C1                  897 	pop	bc
                            898 ;	genIfx
                            899 ;	AOP_STK for _scanf_sloc1_1_0
   029E AF                  900 	xor	a,a
   029F F8 09               901 	lda	hl,9(sp)
   02A1 B6                  902 	or	a,(hl)
   02A2 C2r49s06            903 	jp	nz,00129$
                            904 ;	scanf.c 90
                            905 ;	genIpush
                            906 ; _saveRegsForCall: sendSetSize: 0 deInUse: 0 bcInUse: 1 deSending: 0
   02A5 C5                  907 	push	bc
                            908 ;	AOP_STK for _scanf_i_1_1
   02A6 F8 12               909 	lda	hl,18(sp)
   02A8 7E                  910 	ld	a,(hl)
   02A9 F5                  911 	push	af
   02AA 33                  912 	inc	sp
                            913 ;	genIpush
   02AB 68                  914 	ld	l,b
   02AC 61                  915 	ld	h,c
   02AD E5                  916 	push	hl
                            917 ;	genCall
   02AE CDr00s00            918 	call	_scan_skip
                            919 ;	AOP_STK for _scanf_i_1_1
   02B1 F8 15               920 	lda	hl,21(sp)
   02B3 73                  921 	ld	(hl),e
   02B4 E8 03               922 	lda	sp,3(sp)
   02B6 C1                  923 	pop	bc
                            924 ;	genAssign
                            925 ;	AOP_STK for _scanf_i_1_1
                            926 ;	(registers are the same)
                            927 ;	scanf.c 91
                            928 ;	genPointerGet
                            929 ;	AOP_STK for _scanf_sloc0_1_0
                            930 ;	AOP_STK for _scanf_sloc1_1_0
   02B7 F8 0A               931 	lda	hl,10(sp)
   02B9 5E                  932 	ld	e,(hl)
   02BA 23                  933 	inc	hl
   02BB 56                  934 	ld	d,(hl)
   02BC 1A                  935 	ld	a,(de)
   02BD 2B                  936 	dec	hl
   02BE 2B                  937 	dec	hl
                            938 ;	genCmpEq
                            939 ;	AOP_STK for _scanf_sloc1_1_0
                            940 ; genCmpEq: left 1, right 1, result 0
   02BF 77                  941 	ld      (hl),a
                            942 ; Removed redundent load
   02C0 FE 25               943 	cp	a,#0x25
   02C2 C2r26s06            944 	jp	nz,00125$
   02C5 18 03               945 	jr	00153$
   02C7                     946 00152$:
   02C7 C3r26s06            947 	jp	00125$
   02CA                     948 00153$:
                            949 ;	scanf.c 92
                            950 ;	genPlus
                            951 ;	AOP_STK for _scanf_sloc0_1_0
                            952 ;	AOP_STK for 
                            953 ;	genPlusIncr
                            954 ;	Can't optimise plus by inc, falling back to the normal way
   02CA F8 0A               955 	lda	hl,10(sp)
   02CC 5E                  956 	ld	e,(hl)
   02CD 23                  957 	inc	hl
   02CE 56                  958 	ld	d,(hl)
   02CF 21 01 00            959 	ld	hl,#0x0001
   02D2 19                  960 	add	hl,de
   02D3 7D                  961 	ld	a,l
   02D4 54                  962 	ld	d,h
   02D5 F8 55               963 	lda	hl,85(sp)
                            964 ;	genAssign
                            965 ;	(operands are equal 4)
                            966 ;	genPointerGet
                            967 ;	AOP_STK for 
                            968 ;	AOP_STK for _scanf_sloc0_1_0
   02D7 22                  969 	ld	(hl+),a
   02D8 72                  970 	ld	(hl),d
   02D9 5F                  971 	ld	e,a
   02DA 1A                  972 	ld	a,(de)
   02DB F8 0A               973 	lda	hl,10(sp)
                            974 ;	genCmpEq
                            975 ;	AOP_STK for _scanf_sloc0_1_0
                            976 ; genCmpEq: left 1, right 1, result 0
   02DD 77                  977 	ld      (hl),a
                            978 ; Removed redundent load
   02DE FE 63               979 	cp	a,#0x63
   02E0 CAr16s03            980 	jp	z,00103$
   02E3                     981 00154$:
                            982 ;	genCmpEq
                            983 ;	AOP_STK for _scanf_sloc0_1_0
                            984 ; genCmpEq: left 1, right 1, result 0
   02E3 F8 0A               985 	lda	hl,10(sp)
   02E5 7E                  986 	ld	a,(hl)
   02E6 FE 64               987 	cp	a,#0x64
   02E8 CAr69s03            988 	jp	z,00104$
   02EB                     989 00155$:
                            990 ;	genCmpEq
                            991 ;	AOP_STK for _scanf_sloc0_1_0
                            992 ; genCmpEq: left 1, right 1, result 0
   02EB F8 0A               993 	lda	hl,10(sp)
   02ED 7E                  994 	ld	a,(hl)
   02EE FE 6C               995 	cp	a,#0x6C
   02F0 CArDDs04            996 	jp	z,00117$
   02F3                     997 00156$:
                            998 ;	genCmpEq
                            999 ;	AOP_STK for _scanf_sloc0_1_0
                           1000 ; genCmpEq: left 1, right 1, result 0
   02F3 F8 0A              1001 	lda	hl,10(sp)
   02F5 7E                 1002 	ld	a,(hl)
   02F6 FE 6F              1003 	cp	a,#0x6F
   02F8 CArB9s03           1004 	jp	z,00106$
   02FB                    1005 00157$:
                           1006 ;	genCmpEq
                           1007 ;	AOP_STK for _scanf_sloc0_1_0
                           1008 ; genCmpEq: left 1, right 1, result 0
   02FB F8 0A              1009 	lda	hl,10(sp)
   02FD 7E                 1010 	ld	a,(hl)
   02FE FE 73              1011 	cp	a,#0x73
   0300 CAr59s04           1012 	jp	z,00111$
   0303                    1013 00158$:
                           1014 ;	genCmpEq
                           1015 ;	AOP_STK for _scanf_sloc0_1_0
                           1016 ; genCmpEq: left 1, right 1, result 0
   0303 F8 0A              1017 	lda	hl,10(sp)
   0305 7E                 1018 	ld	a,(hl)
   0306 FE 75              1019 	cp	a,#0x75
   0308 CAr69s03           1020 	jp	z,00104$
   030B                    1021 00159$:
                           1022 ;	genCmpEq
                           1023 ;	AOP_STK for _scanf_sloc0_1_0
                           1024 ; genCmpEq: left 1, right 1, result 0
   030B F8 0A              1025 	lda	hl,10(sp)
   030D 7E                 1026 	ld	a,(hl)
   030E FE 78              1027 	cp	a,#0x78
   0310 CAr09s04           1028 	jp	z,00107$
   0313                    1029 00160$:
                           1030 ;	genGoto
   0313 C3rFDs05           1031 	jp	00120$
                           1032 ;	scanf.c 95
                           1033 ;	genLabel
   0316                    1034 00103$:
                           1035 ;	genPlus
                           1036 ;	AOP_STK for _scanf_ap_1_1
                           1037 ;	AOP_STK for _scanf_sloc2_1_0
                           1038 ;	genPlusIncr
                           1039 ;	Can't optimise plus by inc, falling back to the normal way
   0316 F8 51              1040 	lda	hl,81(sp)
   0318 5E                 1041 	ld	e,(hl)
   0319 23                 1042 	inc	hl
   031A 56                 1043 	ld	d,(hl)
   031B 21 02 00           1044 	ld	hl,#0x0002
   031E 19                 1045 	add	hl,de
   031F 7D                 1046 	ld	a,l
   0320 54                 1047 	ld	d,h
   0321 F8 07              1048 	lda	hl,7(sp)
   0323 22                 1049 	ld	(hl+),a
   0324 72                 1050 	ld	(hl),d
                           1051 ;	genAssign
                           1052 ;	AOP_STK for _scanf_sloc2_1_0
                           1053 ;	AOP_STK for _scanf_ap_1_1
   0325 2B                 1054 	dec	hl
   0326 2A                 1055 	ld	a,(hl+)
   0327 5E                 1056 	ld	e,(hl)
   0328 F8 51              1057 	lda	hl,81(sp)
   032A 22                 1058 	ld	(hl+),a
   032B 73                 1059 	ld	(hl),e
                           1060 ;	genMinus
                           1061 ;	AOP_STK for _scanf_sloc2_1_0
                           1062 ;	AOP_STK for _scanf_sloc3_1_0
   032C F8 07              1063 	lda	hl,7(sp)
   032E 5E                 1064 	ld	e,(hl)
   032F 23                 1065 	inc	hl
   0330 56                 1066 	ld	d,(hl)
   0331 21 02 00           1067 	ld	hl,#0x0002
   0334 7B                 1068 	ld	a,e
   0335 95                 1069 	sub	a,l
   0336 5F                 1070 	ld	e,a
   0337 7A                 1071 	ld	a,d
   0338 9C                 1072 	sbc	a,h
   0339 F8 06              1073 	lda	hl,6(sp)
   033B 32                 1074 	ld      (hl-),a
   033C 73                 1075 	ld	(hl),e
                           1076 ;	genPointerGet
                           1077 ;	AOP_STK for _scanf_sloc3_1_0
                           1078 ;	AOP_STK for _scanf_sloc2_1_0
   033D 5E                 1079 	ld	e,(hl)
   033E 23                 1080 	inc	hl
   033F 56                 1081 	ld	d,(hl)
   0340 1A                 1082 	ld	a,(de)
   0341 23                 1083 	inc	hl
   0342 77                 1084 	ld	(hl),a
   0343 13                 1085 	inc	de
   0344 1A                 1086 	ld	a,(de)
   0345 23                 1087 	inc	hl
   0346 77                 1088 	ld	(hl),a
                           1089 ;	genAssign
                           1090 ;	AOP_STK for _scanf_i_1_1
                           1091 ;	AOP_STK for _scanf_sloc3_1_0
   0347 F8 10              1092 	lda	hl,16(sp)
   0349 7E                 1093 	ld	a,(hl)
   034A F8 05              1094 	lda	hl,5(sp)
   034C 77                 1095 	ld	(hl),a
                           1096 ;	genPlus
                           1097 ;	AOP_STK for _scanf_i_1_1
                           1098 ;	genPlusIncr
   034D F8 10              1099 	lda	hl,16(sp)
   034F 34                 1100 	inc	(hl)
                           1101 ;	genPlus
                           1102 ;	AOP_STK for _scanf_sloc3_1_0
                           1103 ;	AOP_STK for _scanf_sloc4_1_0
                           1104 ;	Can't optimise plus by inc, falling back to the normal way
   0350 58                 1105 	ld	e,b
   0351 51                 1106 	ld	d,c
   0352 F8 05              1107 	lda	hl,5(sp)
   0354 6E                 1108 	ld	l,(hl)
   0355 26 00              1109 	ld	h,#0x00
   0357 19                 1110 	add	hl,de
   0358 7D                 1111 	ld	a,l
   0359 54                 1112 	ld	d,h
   035A F8 03              1113 	lda	hl,3(sp)
                           1114 ;	genPointerGet
                           1115 ;	AOP_STK for _scanf_sloc4_1_0
   035C 22                 1116 	ld	(hl+),a
   035D 72                 1117 	ld	(hl),d
   035E 5F                 1118 	ld	e,a
   035F 1A                 1119 	ld	a,(de)
                           1120 ;	genAssign (pointer)
                           1121 ;	AOP_STK for _scanf_sloc2_1_0
   0360 F8 07              1122 	lda	hl,7(sp)
   0362 5E                 1123 	ld	e,(hl)
   0363 23                 1124 	inc	hl
   0364 56                 1125 	ld	d,(hl)
   0365 12                 1126 	ld	(de),a
                           1127 ;	scanf.c 96
                           1128 ;	genGoto
   0366 C3r20s06           1129 	jp	00121$
                           1130 ;	scanf.c 101
                           1131 ;	genLabel
   0369                    1132 00104$:
                           1133 ;	genPlus
                           1134 ;	AOP_STK for _scanf_ap_1_1
                           1135 ;	AOP_STK for _scanf_sloc4_1_0
                           1136 ;	genPlusIncr
                           1137 ;	Can't optimise plus by inc, falling back to the normal way
   0369 F8 51              1138 	lda	hl,81(sp)
   036B 5E                 1139 	ld	e,(hl)
   036C 23                 1140 	inc	hl
   036D 56                 1141 	ld	d,(hl)
   036E 21 02 00           1142 	ld	hl,#0x0002
   0371 19                 1143 	add	hl,de
   0372 7D                 1144 	ld	a,l
   0373 54                 1145 	ld	d,h
   0374 F8 03              1146 	lda	hl,3(sp)
   0376 22                 1147 	ld	(hl+),a
   0377 72                 1148 	ld	(hl),d
                           1149 ;	genAssign
                           1150 ;	AOP_STK for _scanf_sloc4_1_0
                           1151 ;	AOP_STK for _scanf_ap_1_1
   0378 2B                 1152 	dec	hl
   0379 2A                 1153 	ld	a,(hl+)
   037A 5E                 1154 	ld	e,(hl)
   037B F8 51              1155 	lda	hl,81(sp)
   037D 22                 1156 	ld	(hl+),a
   037E 73                 1157 	ld	(hl),e
                           1158 ;	genMinus
                           1159 ;	AOP_STK for _scanf_sloc4_1_0
                           1160 ;	AOP_STK for _scanf_sloc3_1_0
   037F F8 03              1161 	lda	hl,3(sp)
   0381 5E                 1162 	ld	e,(hl)
   0382 23                 1163 	inc	hl
   0383 56                 1164 	ld	d,(hl)
   0384 21 02 00           1165 	ld	hl,#0x0002
   0387 7B                 1166 	ld	a,e
   0388 95                 1167 	sub	a,l
   0389 5F                 1168 	ld	e,a
   038A 7A                 1169 	ld	a,d
   038B 9C                 1170 	sbc	a,h
   038C F8 06              1171 	lda	hl,6(sp)
   038E 32                 1172 	ld      (hl-),a
   038F 73                 1173 	ld	(hl),e
                           1174 ;	genPointerGet
                           1175 ;	AOP_STK for _scanf_sloc3_1_0
                           1176 ;	AOP_STK for _scanf_sloc4_1_0
   0390 5E                 1177 	ld	e,(hl)
   0391 23                 1178 	inc	hl
   0392 56                 1179 	ld	d,(hl)
   0393 1A                 1180 	ld	a,(de)
   0394 F8 03              1181 	lda	hl,3(sp)
   0396 77                 1182 	ld	(hl),a
   0397 13                 1183 	inc	de
   0398 1A                 1184 	ld	a,(de)
   0399 23                 1185 	inc	hl
   039A 77                 1186 	ld	(hl),a
                           1187 ;	genIpush
                           1188 ; _saveRegsForCall: sendSetSize: 0 deInUse: 0 bcInUse: 1 deSending: 0
   039B C5                 1189 	push	bc
                           1190 ;	AOP_STK for _scanf_sloc4_1_0
   039C 2B                 1191 	dec	hl
   039D 2A                 1192 	ld	a,(hl+)
   039E 66                 1193 	ld	h,(hl)
   039F 6F                 1194 	ld	l,a
   03A0 E5                 1195 	push	hl
                           1196 ;	genIpush
   03A1 3E 0A              1197 	ld	a,#0x0A
   03A3 F5                 1198 	push	af
   03A4 33                 1199 	inc	sp
                           1200 ;	genIpush
                           1201 ;	AOP_STK for _scanf_i_1_1
   03A5 F8 15              1202 	lda	hl,21(sp)
   03A7 7E                 1203 	ld	a,(hl)
   03A8 F5                 1204 	push	af
   03A9 33                 1205 	inc	sp
                           1206 ;	genIpush
   03AA 68                 1207 	ld	l,b
   03AB 61                 1208 	ld	h,c
   03AC E5                 1209 	push	hl
                           1210 ;	genCall
   03AD CDr57s00           1211 	call	_scan_int
                           1212 ;	AOP_STK for _scanf_i_1_1
   03B0 F8 18              1213 	lda	hl,24(sp)
   03B2 73                 1214 	ld	(hl),e
   03B3 E8 06              1215 	lda	sp,6(sp)
   03B5 C1                 1216 	pop	bc
                           1217 ;	genAssign
                           1218 ;	AOP_STK for _scanf_i_1_1
                           1219 ;	(registers are the same)
                           1220 ;	scanf.c 102
                           1221 ;	genGoto
   03B6 C3r20s06           1222 	jp	00121$
                           1223 ;	scanf.c 105
                           1224 ;	genLabel
   03B9                    1225 00106$:
                           1226 ;	genPlus
                           1227 ;	AOP_STK for _scanf_ap_1_1
                           1228 ;	AOP_STK for _scanf_sloc4_1_0
                           1229 ;	genPlusIncr
                           1230 ;	Can't optimise plus by inc, falling back to the normal way
   03B9 F8 51              1231 	lda	hl,81(sp)
   03BB 5E                 1232 	ld	e,(hl)
   03BC 23                 1233 	inc	hl
   03BD 56                 1234 	ld	d,(hl)
   03BE 21 02 00           1235 	ld	hl,#0x0002
   03C1 19                 1236 	add	hl,de
   03C2 7D                 1237 	ld	a,l
   03C3 54                 1238 	ld	d,h
   03C4 F8 03              1239 	lda	hl,3(sp)
   03C6 22                 1240 	ld	(hl+),a
   03C7 72                 1241 	ld	(hl),d
                           1242 ;	genAssign
                           1243 ;	AOP_STK for _scanf_sloc4_1_0
                           1244 ;	AOP_STK for _scanf_ap_1_1
   03C8 2B                 1245 	dec	hl
   03C9 2A                 1246 	ld	a,(hl+)
   03CA 5E                 1247 	ld	e,(hl)
   03CB F8 51              1248 	lda	hl,81(sp)
   03CD 22                 1249 	ld	(hl+),a
   03CE 73                 1250 	ld	(hl),e
                           1251 ;	genMinus
                           1252 ;	AOP_STK for _scanf_sloc4_1_0
                           1253 ;	AOP_STK for _scanf_sloc3_1_0
   03CF F8 03              1254 	lda	hl,3(sp)
   03D1 5E                 1255 	ld	e,(hl)
   03D2 23                 1256 	inc	hl
   03D3 56                 1257 	ld	d,(hl)
   03D4 21 02 00           1258 	ld	hl,#0x0002
   03D7 7B                 1259 	ld	a,e
   03D8 95                 1260 	sub	a,l
   03D9 5F                 1261 	ld	e,a
   03DA 7A                 1262 	ld	a,d
   03DB 9C                 1263 	sbc	a,h
   03DC F8 06              1264 	lda	hl,6(sp)
   03DE 32                 1265 	ld      (hl-),a
   03DF 73                 1266 	ld	(hl),e
                           1267 ;	genPointerGet
                           1268 ;	AOP_STK for _scanf_sloc3_1_0
                           1269 ;	AOP_STK for _scanf_sloc4_1_0
   03E0 5E                 1270 	ld	e,(hl)
   03E1 23                 1271 	inc	hl
   03E2 56                 1272 	ld	d,(hl)
   03E3 1A                 1273 	ld	a,(de)
   03E4 F8 03              1274 	lda	hl,3(sp)
   03E6 77                 1275 	ld	(hl),a
   03E7 13                 1276 	inc	de
   03E8 1A                 1277 	ld	a,(de)
   03E9 23                 1278 	inc	hl
   03EA 77                 1279 	ld	(hl),a
                           1280 ;	genIpush
                           1281 ; _saveRegsForCall: sendSetSize: 0 deInUse: 0 bcInUse: 1 deSending: 0
   03EB C5                 1282 	push	bc
                           1283 ;	AOP_STK for _scanf_sloc4_1_0
   03EC 2B                 1284 	dec	hl
   03ED 2A                 1285 	ld	a,(hl+)
   03EE 66                 1286 	ld	h,(hl)
   03EF 6F                 1287 	ld	l,a
   03F0 E5                 1288 	push	hl
                           1289 ;	genIpush
   03F1 3E 08              1290 	ld	a,#0x08
   03F3 F5                 1291 	push	af
   03F4 33                 1292 	inc	sp
                           1293 ;	genIpush
                           1294 ;	AOP_STK for _scanf_i_1_1
   03F5 F8 15              1295 	lda	hl,21(sp)
   03F7 7E                 1296 	ld	a,(hl)
   03F8 F5                 1297 	push	af
   03F9 33                 1298 	inc	sp
                           1299 ;	genIpush
   03FA 68                 1300 	ld	l,b
   03FB 61                 1301 	ld	h,c
   03FC E5                 1302 	push	hl
                           1303 ;	genCall
   03FD CDr57s00           1304 	call	_scan_int
                           1305 ;	AOP_STK for _scanf_i_1_1
   0400 F8 18              1306 	lda	hl,24(sp)
   0402 73                 1307 	ld	(hl),e
   0403 E8 06              1308 	lda	sp,6(sp)
   0405 C1                 1309 	pop	bc
                           1310 ;	genAssign
                           1311 ;	AOP_STK for _scanf_i_1_1
                           1312 ;	(registers are the same)
                           1313 ;	scanf.c 106
                           1314 ;	genGoto
   0406 C3r20s06           1315 	jp	00121$
                           1316 ;	scanf.c 109
                           1317 ;	genLabel
   0409                    1318 00107$:
                           1319 ;	genPlus
                           1320 ;	AOP_STK for _scanf_ap_1_1
                           1321 ;	AOP_STK for _scanf_sloc4_1_0
                           1322 ;	genPlusIncr
                           1323 ;	Can't optimise plus by inc, falling back to the normal way
   0409 F8 51              1324 	lda	hl,81(sp)
   040B 5E                 1325 	ld	e,(hl)
   040C 23                 1326 	inc	hl
   040D 56                 1327 	ld	d,(hl)
   040E 21 02 00           1328 	ld	hl,#0x0002
   0411 19                 1329 	add	hl,de
   0412 7D                 1330 	ld	a,l
   0413 54                 1331 	ld	d,h
   0414 F8 03              1332 	lda	hl,3(sp)
   0416 22                 1333 	ld	(hl+),a
   0417 72                 1334 	ld	(hl),d
                           1335 ;	genAssign
                           1336 ;	AOP_STK for _scanf_sloc4_1_0
                           1337 ;	AOP_STK for _scanf_ap_1_1
   0418 2B                 1338 	dec	hl
   0419 2A                 1339 	ld	a,(hl+)
   041A 5E                 1340 	ld	e,(hl)
   041B F8 51              1341 	lda	hl,81(sp)
   041D 22                 1342 	ld	(hl+),a
   041E 73                 1343 	ld	(hl),e
                           1344 ;	genMinus
                           1345 ;	AOP_STK for _scanf_sloc4_1_0
                           1346 ;	AOP_STK for _scanf_sloc3_1_0
   041F F8 03              1347 	lda	hl,3(sp)
   0421 5E                 1348 	ld	e,(hl)
   0422 23                 1349 	inc	hl
   0423 56                 1350 	ld	d,(hl)
   0424 21 02 00           1351 	ld	hl,#0x0002
   0427 7B                 1352 	ld	a,e
   0428 95                 1353 	sub	a,l
   0429 5F                 1354 	ld	e,a
   042A 7A                 1355 	ld	a,d
   042B 9C                 1356 	sbc	a,h
   042C F8 06              1357 	lda	hl,6(sp)
   042E 32                 1358 	ld      (hl-),a
   042F 73                 1359 	ld	(hl),e
                           1360 ;	genPointerGet
                           1361 ;	AOP_STK for _scanf_sloc3_1_0
                           1362 ;	AOP_STK for _scanf_sloc4_1_0
   0430 5E                 1363 	ld	e,(hl)
   0431 23                 1364 	inc	hl
   0432 56                 1365 	ld	d,(hl)
   0433 1A                 1366 	ld	a,(de)
   0434 F8 03              1367 	lda	hl,3(sp)
   0436 77                 1368 	ld	(hl),a
   0437 13                 1369 	inc	de
   0438 1A                 1370 	ld	a,(de)
   0439 23                 1371 	inc	hl
   043A 77                 1372 	ld	(hl),a
                           1373 ;	genIpush
                           1374 ; _saveRegsForCall: sendSetSize: 0 deInUse: 0 bcInUse: 1 deSending: 0
   043B C5                 1375 	push	bc
                           1376 ;	AOP_STK for _scanf_sloc4_1_0
   043C 2B                 1377 	dec	hl
   043D 2A                 1378 	ld	a,(hl+)
   043E 66                 1379 	ld	h,(hl)
   043F 6F                 1380 	ld	l,a
   0440 E5                 1381 	push	hl
                           1382 ;	genIpush
   0441 3E 10              1383 	ld	a,#0x10
   0443 F5                 1384 	push	af
   0444 33                 1385 	inc	sp
                           1386 ;	genIpush
                           1387 ;	AOP_STK for _scanf_i_1_1
   0445 F8 15              1388 	lda	hl,21(sp)
   0447 7E                 1389 	ld	a,(hl)
   0448 F5                 1390 	push	af
   0449 33                 1391 	inc	sp
                           1392 ;	genIpush
   044A 68                 1393 	ld	l,b
   044B 61                 1394 	ld	h,c
   044C E5                 1395 	push	hl
                           1396 ;	genCall
   044D CDr57s00           1397 	call	_scan_int
                           1398 ;	AOP_STK for _scanf_i_1_1
   0450 F8 18              1399 	lda	hl,24(sp)
   0452 73                 1400 	ld	(hl),e
   0453 E8 06              1401 	lda	sp,6(sp)
   0455 C1                 1402 	pop	bc
                           1403 ;	genAssign
                           1404 ;	AOP_STK for _scanf_i_1_1
                           1405 ;	(registers are the same)
                           1406 ;	scanf.c 110
                           1407 ;	genGoto
   0456 C3r20s06           1408 	jp	00121$
                           1409 ;	scanf.c 118
                           1410 ;	genLabel
   0459                    1411 00111$:
                           1412 ;	scanf.c 115
                           1413 ;	genPlus
                           1414 ;	AOP_STK for _scanf_ap_1_1
                           1415 ;	AOP_STK for _scanf_sloc4_1_0
                           1416 ;	genPlusIncr
                           1417 ;	Can't optimise plus by inc, falling back to the normal way
   0459 F8 51              1418 	lda	hl,81(sp)
   045B 5E                 1419 	ld	e,(hl)
   045C 23                 1420 	inc	hl
   045D 56                 1421 	ld	d,(hl)
   045E 21 02 00           1422 	ld	hl,#0x0002
   0461 19                 1423 	add	hl,de
   0462 7D                 1424 	ld	a,l
   0463 54                 1425 	ld	d,h
   0464 F8 03              1426 	lda	hl,3(sp)
   0466 22                 1427 	ld	(hl+),a
   0467 72                 1428 	ld	(hl),d
                           1429 ;	genAssign
                           1430 ;	AOP_STK for _scanf_sloc4_1_0
                           1431 ;	AOP_STK for _scanf_ap_1_1
   0468 2B                 1432 	dec	hl
   0469 2A                 1433 	ld	a,(hl+)
   046A 5E                 1434 	ld	e,(hl)
   046B F8 51              1435 	lda	hl,81(sp)
   046D 22                 1436 	ld	(hl+),a
   046E 73                 1437 	ld	(hl),e
                           1438 ;	genMinus
                           1439 ;	AOP_STK for _scanf_sloc4_1_0
                           1440 ;	AOP_STK for _scanf_sloc3_1_0
   046F F8 03              1441 	lda	hl,3(sp)
   0471 5E                 1442 	ld	e,(hl)
   0472 23                 1443 	inc	hl
   0473 56                 1444 	ld	d,(hl)
   0474 21 02 00           1445 	ld	hl,#0x0002
   0477 7B                 1446 	ld	a,e
   0478 95                 1447 	sub	a,l
   0479 5F                 1448 	ld	e,a
   047A 7A                 1449 	ld	a,d
   047B 9C                 1450 	sbc	a,h
   047C F8 06              1451 	lda	hl,6(sp)
   047E 32                 1452 	ld      (hl-),a
   047F 73                 1453 	ld	(hl),e
                           1454 ;	genPointerGet
                           1455 ;	AOP_STK for _scanf_sloc3_1_0
                           1456 ;	AOP_STK for _scanf_d_5_5
   0480 5E                 1457 	ld	e,(hl)
   0481 23                 1458 	inc	hl
   0482 56                 1459 	ld	d,(hl)
   0483 1A                 1460 	ld	a,(de)
   0484 F8 0C              1461 	lda	hl,12(sp)
   0486 77                 1462 	ld	(hl),a
   0487 13                 1463 	inc	de
   0488 1A                 1464 	ld	a,(de)
   0489 23                 1465 	inc	hl
                           1466 ;	genAssign
                           1467 ;	AOP_STK for _scanf_d_5_5
                           1468 ;	(registers are the same)
                           1469 ;	scanf.c 116
                           1470 ;	genAssign
                           1471 ;	AOP_STK for _scanf_j_5_5
   048A 22                 1472 	ld	(hl+),a
   048B 36 00              1473 	ld	(hl),#0x00
                           1474 ;	genAssign
                           1475 ;	AOP_STK for _scanf_i_1_1
                           1476 ;	(registers are the same)
                           1477 ;	genLabel
   048D                    1478 00108$:
                           1479 ;	genAssign
                           1480 ;	AOP_STK for _scanf_j_5_5
                           1481 ;	AOP_STK for _scanf_sloc4_1_0
   048D F8 0E              1482 	lda	hl,14(sp)
   048F 7E                 1483 	ld	a,(hl)
   0490 F8 03              1484 	lda	hl,3(sp)
   0492 77                 1485 	ld	(hl),a
                           1486 ;	genPlus
                           1487 ;	AOP_STK for _scanf_j_5_5
                           1488 ;	genPlusIncr
   0493 F8 0E              1489 	lda	hl,14(sp)
   0495 34                 1490 	inc	(hl)
                           1491 ;	genPlus
                           1492 ;	AOP_STK for _scanf_d_5_5
                           1493 ;	AOP_STK for _scanf_sloc4_1_0
                           1494 ;	AOP_STK for _scanf_sloc3_1_0
                           1495 ;	Can't optimise plus by inc, falling back to the normal way
   0496 2B                 1496 	dec	hl
   0497 2B                 1497 	dec	hl
   0498 5E                 1498 	ld	e,(hl)
   0499 23                 1499 	inc	hl
   049A 56                 1500 	ld	d,(hl)
   049B F8 03              1501 	lda	hl,3(sp)
   049D 6E                 1502 	ld	l,(hl)
   049E 26 00              1503 	ld	h,#0x00
   04A0 19                 1504 	add	hl,de
   04A1 7D                 1505 	ld	a,l
   04A2 54                 1506 	ld	d,h
   04A3 F8 05              1507 	lda	hl,5(sp)
   04A5 22                 1508 	ld	(hl+),a
   04A6 72                 1509 	ld	(hl),d
                           1510 ;	genAssign
                           1511 ;	AOP_STK for _scanf_i_1_1
                           1512 ;	AOP_STK for _scanf_sloc2_1_0
   04A7 F8 10              1513 	lda	hl,16(sp)
   04A9 7E                 1514 	ld	a,(hl)
   04AA F8 07              1515 	lda	hl,7(sp)
   04AC 77                 1516 	ld	(hl),a
                           1517 ;	genPlus
                           1518 ;	AOP_STK for _scanf_i_1_1
                           1519 ;	genPlusIncr
   04AD F8 10              1520 	lda	hl,16(sp)
   04AF 34                 1521 	inc	(hl)
                           1522 ;	genAssign
                           1523 ;	AOP_STK for _scanf_i_1_1
                           1524 ;	(registers are the same)
                           1525 ;	genPlus
                           1526 ;	AOP_STK for _scanf_sloc2_1_0
                           1527 ;	AOP_STK for _scanf_sloc5_1_0
                           1528 ;	Can't optimise plus by inc, falling back to the normal way
   04B0 58                 1529 	ld	e,b
   04B1 51                 1530 	ld	d,c
   04B2 F8 07              1531 	lda	hl,7(sp)
   04B4 6E                 1532 	ld	l,(hl)
   04B5 26 00              1533 	ld	h,#0x00
   04B7 19                 1534 	add	hl,de
   04B8 7D                 1535 	ld	a,l
   04B9 54                 1536 	ld	d,h
   04BA F8 01              1537 	lda	hl,1(sp)
                           1538 ;	genPointerGet
                           1539 ;	AOP_STK for _scanf_sloc5_1_0
                           1540 ;	AOP_STK for _scanf_sloc6_1_0
   04BC 22                 1541 	ld	(hl+),a
   04BD 72                 1542 	ld	(hl),d
   04BE 5F                 1543 	ld	e,a
   04BF 1A                 1544 	ld	a,(de)
   04C0 2B                 1545 	dec	hl
   04C1 2B                 1546 	dec	hl
   04C2 77                 1547 	ld	(hl),a
                           1548 ;	genAssign (pointer)
                           1549 ;	AOP_STK for _scanf_sloc3_1_0
                           1550 ;	AOP_STK for _scanf_sloc6_1_0
   04C3 F8 05              1551 	lda	hl,5(sp)
   04C5 5E                 1552 	ld	e,(hl)
   04C6 23                 1553 	inc	hl
   04C7 56                 1554 	ld	d,(hl)
   04C8 F8 00              1555 	lda	hl,0(sp)
   04CA 7E                 1556 	ld	a,(hl)
   04CB 12                 1557 	ld	(de),a
                           1558 ;	genCmpEq
                           1559 ;	AOP_STK for _scanf_sloc6_1_0
                           1560 ; genCmpEq: left 1, right 1, result 1
   04CC 7E                 1561 	ld	a,(hl)
   04CD B7                 1562 	or	a,a
   04CE C2rD5s04           1563 	jp	nz,00161$
   04D1 3E 01              1564 	ld	a,#0x01
   04D3 18 01              1565 	jr	00162$
   04D5                    1566 00161$:
   04D5 AF                 1567 	xor	a,a
   04D6                    1568 00162$:
                           1569 ;	genIfx
   04D6 B7                 1570 	or	a,a
   04D7 C2r20s06           1571 	jp	nz,00121$
                           1572 ;	genGoto
   04DA C3r8Ds04           1573 	jp	00108$
                           1574 ;	scanf.c 137
                           1575 ;	genLabel
   04DD                    1576 00117$:
                           1577 ;	scanf.c 122
                           1578 ;	genPlus
                           1579 ;	AOP_STK for 
                           1580 ;	genPlusIncr
   04DD F8 55              1581 	lda	hl,85(sp)
   04DF 34                 1582 	inc	(hl)
   04E0 20 02              1583 	jr	nz,00163$
   04E2 23                 1584 	inc	hl
   04E3 34                 1585 	inc	(hl)
   04E4                    1586 00163$:
                           1587 ;	genAssign
                           1588 ;	(operands are equal 4)
                           1589 ;	genPointerGet
                           1590 ;	AOP_STK for 
                           1591 ;	AOP_STK for _scanf_sloc6_1_0
   04E4 F8 55              1592 	lda	hl,85(sp)
   04E6 5E                 1593 	ld	e,(hl)
   04E7 23                 1594 	inc	hl
   04E8 56                 1595 	ld	d,(hl)
   04E9 1A                 1596 	ld	a,(de)
   04EA F8 00              1597 	lda	hl,0(sp)
                           1598 ;	genCmpEq
                           1599 ;	AOP_STK for _scanf_sloc6_1_0
                           1600 ; genCmpEq: left 1, right 1, result 0
   04EC 77                 1601 	ld      (hl),a
                           1602 ; Removed redundent load
   04ED FE 64              1603 	cp	a,#0x64
   04EF CAr0Ds05           1604 	jp	z,00112$
   04F2                    1605 00164$:
                           1606 ;	genCmpEq
                           1607 ;	AOP_STK for _scanf_sloc6_1_0
                           1608 ; genCmpEq: left 1, right 1, result 0
   04F2 F8 00              1609 	lda	hl,0(sp)
   04F4 7E                 1610 	ld	a,(hl)
   04F5 FE 6F              1611 	cp	a,#0x6F
   04F7 CAr5Ds05           1612 	jp	z,00114$
   04FA                    1613 00165$:
                           1614 ;	genCmpEq
                           1615 ;	AOP_STK for _scanf_sloc6_1_0
                           1616 ; genCmpEq: left 1, right 1, result 0
   04FA F8 00              1617 	lda	hl,0(sp)
   04FC 7E                 1618 	ld	a,(hl)
   04FD FE 75              1619 	cp	a,#0x75
   04FF CAr0Ds05           1620 	jp	z,00112$
   0502                    1621 00166$:
                           1622 ;	genCmpEq
                           1623 ;	AOP_STK for _scanf_sloc6_1_0
                           1624 ; genCmpEq: left 1, right 1, result 0
   0502 F8 00              1625 	lda	hl,0(sp)
   0504 7E                 1626 	ld	a,(hl)
   0505 FE 78              1627 	cp	a,#0x78
   0507 CArADs05           1628 	jp	z,00115$
   050A                    1629 00167$:
                           1630 ;	genGoto
   050A C3r20s06           1631 	jp	00121$
                           1632 ;	scanf.c 127
                           1633 ;	genLabel
   050D                    1634 00112$:
                           1635 ;	genPlus
                           1636 ;	AOP_STK for _scanf_ap_1_1
                           1637 ;	AOP_STK for _scanf_sloc5_1_0
                           1638 ;	genPlusIncr
                           1639 ;	Can't optimise plus by inc, falling back to the normal way
   050D F8 51              1640 	lda	hl,81(sp)
   050F 5E                 1641 	ld	e,(hl)
   0510 23                 1642 	inc	hl
   0511 56                 1643 	ld	d,(hl)
   0512 21 02 00           1644 	ld	hl,#0x0002
   0515 19                 1645 	add	hl,de
   0516 7D                 1646 	ld	a,l
   0517 54                 1647 	ld	d,h
   0518 F8 01              1648 	lda	hl,1(sp)
   051A 22                 1649 	ld	(hl+),a
   051B 72                 1650 	ld	(hl),d
                           1651 ;	genAssign
                           1652 ;	AOP_STK for _scanf_sloc5_1_0
                           1653 ;	AOP_STK for _scanf_ap_1_1
   051C 2B                 1654 	dec	hl
   051D 2A                 1655 	ld	a,(hl+)
   051E 5E                 1656 	ld	e,(hl)
   051F F8 51              1657 	lda	hl,81(sp)
   0521 22                 1658 	ld	(hl+),a
   0522 73                 1659 	ld	(hl),e
                           1660 ;	genMinus
                           1661 ;	AOP_STK for _scanf_sloc5_1_0
                           1662 ;	AOP_STK for _scanf_sloc4_1_0
   0523 F8 01              1663 	lda	hl,1(sp)
   0525 5E                 1664 	ld	e,(hl)
   0526 23                 1665 	inc	hl
   0527 56                 1666 	ld	d,(hl)
   0528 21 02 00           1667 	ld	hl,#0x0002
   052B 7B                 1668 	ld	a,e
   052C 95                 1669 	sub	a,l
   052D 5F                 1670 	ld	e,a
   052E 7A                 1671 	ld	a,d
   052F 9C                 1672 	sbc	a,h
   0530 F8 04              1673 	lda	hl,4(sp)
   0532 32                 1674 	ld      (hl-),a
   0533 73                 1675 	ld	(hl),e
                           1676 ;	genPointerGet
                           1677 ;	AOP_STK for _scanf_sloc4_1_0
                           1678 ;	AOP_STK for _scanf_sloc5_1_0
   0534 5E                 1679 	ld	e,(hl)
   0535 23                 1680 	inc	hl
   0536 56                 1681 	ld	d,(hl)
   0537 1A                 1682 	ld	a,(de)
   0538 F8 01              1683 	lda	hl,1(sp)
   053A 77                 1684 	ld	(hl),a
   053B 13                 1685 	inc	de
   053C 1A                 1686 	ld	a,(de)
   053D 23                 1687 	inc	hl
   053E 77                 1688 	ld	(hl),a
                           1689 ;	genIpush
                           1690 ; _saveRegsForCall: sendSetSize: 0 deInUse: 0 bcInUse: 1 deSending: 0
   053F C5                 1691 	push	bc
                           1692 ;	AOP_STK for _scanf_sloc5_1_0
   0540 2B                 1693 	dec	hl
   0541 2A                 1694 	ld	a,(hl+)
   0542 66                 1695 	ld	h,(hl)
   0543 6F                 1696 	ld	l,a
   0544 E5                 1697 	push	hl
                           1698 ;	genIpush
   0545 3E 0A              1699 	ld	a,#0x0A
   0547 F5                 1700 	push	af
   0548 33                 1701 	inc	sp
                           1702 ;	genIpush
                           1703 ;	AOP_STK for _scanf_i_1_1
   0549 F8 15              1704 	lda	hl,21(sp)
   054B 7E                 1705 	ld	a,(hl)
   054C F5                 1706 	push	af
   054D 33                 1707 	inc	sp
                           1708 ;	genIpush
   054E 68                 1709 	ld	l,b
   054F 61                 1710 	ld	h,c
   0550 E5                 1711 	push	hl
                           1712 ;	genCall
   0551 CDr45s01           1713 	call	_scan_long
                           1714 ;	AOP_STK for _scanf_i_1_1
   0554 F8 18              1715 	lda	hl,24(sp)
   0556 73                 1716 	ld	(hl),e
   0557 E8 06              1717 	lda	sp,6(sp)
   0559 C1                 1718 	pop	bc
                           1719 ;	genAssign
                           1720 ;	AOP_STK for _scanf_i_1_1
                           1721 ;	(registers are the same)
                           1722 ;	scanf.c 128
                           1723 ;	genGoto
   055A C3r20s06           1724 	jp	00121$
                           1725 ;	scanf.c 131
                           1726 ;	genLabel
   055D                    1727 00114$:
                           1728 ;	genPlus
                           1729 ;	AOP_STK for _scanf_ap_1_1
                           1730 ;	AOP_STK for _scanf_sloc5_1_0
                           1731 ;	genPlusIncr
                           1732 ;	Can't optimise plus by inc, falling back to the normal way
   055D F8 51              1733 	lda	hl,81(sp)
   055F 5E                 1734 	ld	e,(hl)
   0560 23                 1735 	inc	hl
   0561 56                 1736 	ld	d,(hl)
   0562 21 02 00           1737 	ld	hl,#0x0002
   0565 19                 1738 	add	hl,de
   0566 7D                 1739 	ld	a,l
   0567 54                 1740 	ld	d,h
   0568 F8 01              1741 	lda	hl,1(sp)
   056A 22                 1742 	ld	(hl+),a
   056B 72                 1743 	ld	(hl),d
                           1744 ;	genAssign
                           1745 ;	AOP_STK for _scanf_sloc5_1_0
                           1746 ;	AOP_STK for _scanf_ap_1_1
   056C 2B                 1747 	dec	hl
   056D 2A                 1748 	ld	a,(hl+)
   056E 5E                 1749 	ld	e,(hl)
   056F F8 51              1750 	lda	hl,81(sp)
   0571 22                 1751 	ld	(hl+),a
   0572 73                 1752 	ld	(hl),e
                           1753 ;	genMinus
                           1754 ;	AOP_STK for _scanf_sloc5_1_0
                           1755 ;	AOP_STK for _scanf_sloc4_1_0
   0573 F8 01              1756 	lda	hl,1(sp)
   0575 5E                 1757 	ld	e,(hl)
   0576 23                 1758 	inc	hl
   0577 56                 1759 	ld	d,(hl)
   0578 21 02 00           1760 	ld	hl,#0x0002
   057B 7B                 1761 	ld	a,e
   057C 95                 1762 	sub	a,l
   057D 5F                 1763 	ld	e,a
   057E 7A                 1764 	ld	a,d
   057F 9C                 1765 	sbc	a,h
   0580 F8 04              1766 	lda	hl,4(sp)
   0582 32                 1767 	ld      (hl-),a
   0583 73                 1768 	ld	(hl),e
                           1769 ;	genPointerGet
                           1770 ;	AOP_STK for _scanf_sloc4_1_0
                           1771 ;	AOP_STK for _scanf_sloc5_1_0
   0584 5E                 1772 	ld	e,(hl)
   0585 23                 1773 	inc	hl
   0586 56                 1774 	ld	d,(hl)
   0587 1A                 1775 	ld	a,(de)
   0588 F8 01              1776 	lda	hl,1(sp)
   058A 77                 1777 	ld	(hl),a
   058B 13                 1778 	inc	de
   058C 1A                 1779 	ld	a,(de)
   058D 23                 1780 	inc	hl
   058E 77                 1781 	ld	(hl),a
                           1782 ;	genIpush
                           1783 ; _saveRegsForCall: sendSetSize: 0 deInUse: 0 bcInUse: 1 deSending: 0
   058F C5                 1784 	push	bc
                           1785 ;	AOP_STK for _scanf_sloc5_1_0
   0590 2B                 1786 	dec	hl
   0591 2A                 1787 	ld	a,(hl+)
   0592 66                 1788 	ld	h,(hl)
   0593 6F                 1789 	ld	l,a
   0594 E5                 1790 	push	hl
                           1791 ;	genIpush
   0595 3E 08              1792 	ld	a,#0x08
   0597 F5                 1793 	push	af
   0598 33                 1794 	inc	sp
                           1795 ;	genIpush
                           1796 ;	AOP_STK for _scanf_i_1_1
   0599 F8 15              1797 	lda	hl,21(sp)
   059B 7E                 1798 	ld	a,(hl)
   059C F5                 1799 	push	af
   059D 33                 1800 	inc	sp
                           1801 ;	genIpush
   059E 68                 1802 	ld	l,b
   059F 61                 1803 	ld	h,c
   05A0 E5                 1804 	push	hl
                           1805 ;	genCall
   05A1 CDr45s01           1806 	call	_scan_long
                           1807 ;	AOP_STK for _scanf_i_1_1
   05A4 F8 18              1808 	lda	hl,24(sp)
   05A6 73                 1809 	ld	(hl),e
   05A7 E8 06              1810 	lda	sp,6(sp)
   05A9 C1                 1811 	pop	bc
                           1812 ;	genAssign
                           1813 ;	AOP_STK for _scanf_i_1_1
                           1814 ;	(registers are the same)
                           1815 ;	scanf.c 132
                           1816 ;	genGoto
   05AA C3r20s06           1817 	jp	00121$
                           1818 ;	scanf.c 135
                           1819 ;	genLabel
   05AD                    1820 00115$:
                           1821 ;	genPlus
                           1822 ;	AOP_STK for _scanf_ap_1_1
                           1823 ;	AOP_STK for _scanf_sloc5_1_0
                           1824 ;	genPlusIncr
                           1825 ;	Can't optimise plus by inc, falling back to the normal way
   05AD F8 51              1826 	lda	hl,81(sp)
   05AF 5E                 1827 	ld	e,(hl)
   05B0 23                 1828 	inc	hl
   05B1 56                 1829 	ld	d,(hl)
   05B2 21 02 00           1830 	ld	hl,#0x0002
   05B5 19                 1831 	add	hl,de
   05B6 7D                 1832 	ld	a,l
   05B7 54                 1833 	ld	d,h
   05B8 F8 01              1834 	lda	hl,1(sp)
   05BA 22                 1835 	ld	(hl+),a
   05BB 72                 1836 	ld	(hl),d
                           1837 ;	genAssign
                           1838 ;	AOP_STK for _scanf_sloc5_1_0
                           1839 ;	AOP_STK for _scanf_ap_1_1
   05BC 2B                 1840 	dec	hl
   05BD 2A                 1841 	ld	a,(hl+)
   05BE 5E                 1842 	ld	e,(hl)
   05BF F8 51              1843 	lda	hl,81(sp)
   05C1 22                 1844 	ld	(hl+),a
   05C2 73                 1845 	ld	(hl),e
                           1846 ;	genMinus
                           1847 ;	AOP_STK for _scanf_sloc5_1_0
                           1848 ;	AOP_STK for _scanf_sloc4_1_0
   05C3 F8 01              1849 	lda	hl,1(sp)
   05C5 5E                 1850 	ld	e,(hl)
   05C6 23                 1851 	inc	hl
   05C7 56                 1852 	ld	d,(hl)
   05C8 21 02 00           1853 	ld	hl,#0x0002
   05CB 7B                 1854 	ld	a,e
   05CC 95                 1855 	sub	a,l
   05CD 5F                 1856 	ld	e,a
   05CE 7A                 1857 	ld	a,d
   05CF 9C                 1858 	sbc	a,h
   05D0 F8 04              1859 	lda	hl,4(sp)
   05D2 32                 1860 	ld      (hl-),a
   05D3 73                 1861 	ld	(hl),e
                           1862 ;	genPointerGet
                           1863 ;	AOP_STK for _scanf_sloc4_1_0
                           1864 ;	AOP_STK for _scanf_sloc5_1_0
   05D4 5E                 1865 	ld	e,(hl)
   05D5 23                 1866 	inc	hl
   05D6 56                 1867 	ld	d,(hl)
   05D7 1A                 1868 	ld	a,(de)
   05D8 F8 01              1869 	lda	hl,1(sp)
   05DA 77                 1870 	ld	(hl),a
   05DB 13                 1871 	inc	de
   05DC 1A                 1872 	ld	a,(de)
   05DD 23                 1873 	inc	hl
   05DE 77                 1874 	ld	(hl),a
                           1875 ;	genIpush
                           1876 ; _saveRegsForCall: sendSetSize: 0 deInUse: 0 bcInUse: 1 deSending: 0
   05DF C5                 1877 	push	bc
                           1878 ;	AOP_STK for _scanf_sloc5_1_0
   05E0 2B                 1879 	dec	hl
   05E1 2A                 1880 	ld	a,(hl+)
   05E2 66                 1881 	ld	h,(hl)
   05E3 6F                 1882 	ld	l,a
   05E4 E5                 1883 	push	hl
                           1884 ;	genIpush
   05E5 3E 10              1885 	ld	a,#0x10
   05E7 F5                 1886 	push	af
   05E8 33                 1887 	inc	sp
                           1888 ;	genIpush
                           1889 ;	AOP_STK for _scanf_i_1_1
   05E9 F8 15              1890 	lda	hl,21(sp)
   05EB 7E                 1891 	ld	a,(hl)
   05EC F5                 1892 	push	af
   05ED 33                 1893 	inc	sp
                           1894 ;	genIpush
   05EE 68                 1895 	ld	l,b
   05EF 61                 1896 	ld	h,c
   05F0 E5                 1897 	push	hl
                           1898 ;	genCall
   05F1 CDr45s01           1899 	call	_scan_long
                           1900 ;	AOP_STK for _scanf_i_1_1
   05F4 F8 18              1901 	lda	hl,24(sp)
   05F6 73                 1902 	ld	(hl),e
   05F7 E8 06              1903 	lda	sp,6(sp)
   05F9 C1                 1904 	pop	bc
                           1905 ;	genAssign
                           1906 ;	AOP_STK for _scanf_i_1_1
                           1907 ;	(registers are the same)
                           1908 ;	scanf.c 138
                           1909 ;	genGoto
   05FA C3r20s06           1910 	jp	00121$
                           1911 ;	scanf.c 142
                           1912 ;	genLabel
   05FD                    1913 00120$:
                           1914 ;	scanf.c 140
                           1915 ;	genPlus
                           1916 ;	AOP_STK for _scanf_i_1_1
                           1917 ;	AOP_STK for _scanf_sloc5_1_0
                           1918 ;	Can't optimise plus by inc, falling back to the normal way
   05FD 58                 1919 	ld	e,b
   05FE 51                 1920 	ld	d,c
   05FF F8 10              1921 	lda	hl,16(sp)
   0601 6E                 1922 	ld	l,(hl)
   0602 26 00              1923 	ld	h,#0x00
   0604 19                 1924 	add	hl,de
   0605 7D                 1925 	ld	a,l
   0606 54                 1926 	ld	d,h
   0607 F8 01              1927 	lda	hl,1(sp)
                           1928 ;	genPointerGet
                           1929 ;	AOP_STK for _scanf_sloc5_1_0
                           1930 ;	AOP_STK for _scanf_sloc6_1_0
   0609 22                 1931 	ld	(hl+),a
   060A 72                 1932 	ld	(hl),d
   060B 5F                 1933 	ld	e,a
   060C 1A                 1934 	ld	a,(de)
   060D 2B                 1935 	dec	hl
   060E 2B                 1936 	dec	hl
   060F 77                 1937 	ld	(hl),a
                           1938 ;	genCmpEq
                           1939 ;	AOP_STK for _scanf_sloc6_1_0
                           1940 ;	AOP_STK for _scanf_sloc0_1_0
                           1941 ; genCmpEq: left 1, right 1, result 0
   0610 F8 0A              1942 	lda	hl,10(sp)
   0612 7E                 1943 	ld	a,(hl)
   0613 F8 00              1944 	lda	hl,0(sp)
   0615 BE                 1945 	cp	(hl)
   0616 20 03              1946 	jr	nz,00168$
   0618 C3r20s06           1947 	jp	00121$
   061B                    1948 00168$:
                           1949 ;	scanf.c 141
                           1950 ;	genRet
   061B 1E FF              1951 	ld	e,#0xFF
   061D C3r65s06           1952 	jp	00131$
                           1953 ;	scanf.c 143
                           1954 ;	genLabel
   0620                    1955 00121$:
                           1956 ;	scanf.c 144
                           1957 ;	genPlus
                           1958 ;	AOP_STK for _scanf_nb_1_1
                           1959 ;	genPlusIncr
   0620 F8 0F              1960 	lda	hl,15(sp)
   0622 34                 1961 	inc	(hl)
                           1962 ;	genAssign
                           1963 ;	AOP_STK for _scanf_nb_1_1
                           1964 ;	(registers are the same)
                           1965 ;	genGoto
   0623 C3r49s06           1966 	jp	00129$
                           1967 ;	genLabel
   0626                    1968 00125$:
                           1969 ;	scanf.c 146
                           1970 ;	genPlus
                           1971 ;	AOP_STK for _scanf_i_1_1
                           1972 ;	AOP_STK for _scanf_sloc5_1_0
                           1973 ;	Can't optimise plus by inc, falling back to the normal way
   0626 58                 1974 	ld	e,b
   0627 51                 1975 	ld	d,c
   0628 F8 10              1976 	lda	hl,16(sp)
   062A 6E                 1977 	ld	l,(hl)
   062B 26 00              1978 	ld	h,#0x00
   062D 19                 1979 	add	hl,de
   062E 7D                 1980 	ld	a,l
   062F 54                 1981 	ld	d,h
   0630 F8 01              1982 	lda	hl,1(sp)
                           1983 ;	genPointerGet
                           1984 ;	AOP_STK for _scanf_sloc5_1_0
                           1985 ;	AOP_STK for _scanf_sloc6_1_0
   0632 22                 1986 	ld	(hl+),a
   0633 72                 1987 	ld	(hl),d
   0634 5F                 1988 	ld	e,a
   0635 1A                 1989 	ld	a,(de)
   0636 2B                 1990 	dec	hl
   0637 2B                 1991 	dec	hl
   0638 77                 1992 	ld	(hl),a
                           1993 ;	genCmpEq
                           1994 ;	AOP_STK for _scanf_sloc6_1_0
                           1995 ;	AOP_STK for _scanf_sloc1_1_0
                           1996 ; genCmpEq: left 1, right 1, result 0
   0639 F8 09              1997 	lda	hl,9(sp)
   063B 7E                 1998 	ld	a,(hl)
   063C F8 00              1999 	lda	hl,0(sp)
   063E BE                 2000 	cp	(hl)
   063F 20 03              2001 	jr	nz,00169$
   0641 C3r49s06           2002 	jp	00129$
   0644                    2003 00169$:
                           2004 ;	scanf.c 147
                           2005 ;	genRet
   0644 1E FF              2006 	ld	e,#0xFF
   0646 C3r65s06           2007 	jp	00131$
                           2008 ;	genLabel
   0649                    2009 00129$:
                           2010 ;	scanf.c 87
                           2011 ;	genAssign
                           2012 ;	AOP_STK for 
                           2013 ;	AOP_STK for _scanf_sloc5_1_0
   0649 F8 55              2014 	lda	hl,85(sp)
   064B 2A                 2015 	ld	a,(hl+)
   064C 5E                 2016 	ld	e,(hl)
   064D F8 01              2017 	lda	hl,1(sp)
   064F 22                 2018 	ld	(hl+),a
   0650 73                 2019 	ld	(hl),e
                           2020 ;	genPlus
                           2021 ;	AOP_STK for _scanf_sloc5_1_0
                           2022 ;	AOP_STK for 
                           2023 ;	genPlusIncr
                           2024 ;	Can't optimise plus by inc, falling back to the normal way
   0651 2B                 2025 	dec	hl
   0652 5E                 2026 	ld	e,(hl)
   0653 23                 2027 	inc	hl
   0654 56                 2028 	ld	d,(hl)
   0655 21 01 00           2029 	ld	hl,#0x0001
   0658 19                 2030 	add	hl,de
   0659 7D                 2031 	ld	a,l
   065A 54                 2032 	ld	d,h
   065B F8 55              2033 	lda	hl,85(sp)
   065D 22                 2034 	ld	(hl+),a
   065E 72                 2035 	ld	(hl),d
                           2036 ;	genGoto
   065F C3r7Cs02           2037 	jp	00127$
                           2038 ;	genLabel
   0662                    2039 00130$:
                           2040 ;	scanf.c 151
                           2041 ;	genRet
                           2042 ;	AOP_STK for _scanf_nb_1_1
   0662 F8 0F              2043 	lda	hl,15(sp)
   0664 5E                 2044 	ld	e,(hl)
                           2045 ;	genLabel
   0665                    2046 00131$:
                           2047 ;	genEndFunction
   0665 E8 53              2048 	lda	sp,83(sp)
   0667 C9                 2049 	ret
   0668                    2050 ___scanf_end:
                           2051 	.area _CODE
