                              1 ;--------------------------------------------------------
                              2 ; File Created by SDCC : FreeWare ANSI-C Compiler
                              3 ; Version 2.3.1 Wed Sep 04 21:56:20 2019
                              4 
                              5 ;--------------------------------------------------------
                              6 	.module strncpy
                              7 	
                              8 ;--------------------------------------------------------
                              9 ; Public variables in this module
                             10 ;--------------------------------------------------------
                             11 	.globl _strncpy
                             12 ;--------------------------------------------------------
                             13 ; special function registers
                             14 ;--------------------------------------------------------
                             15 ;--------------------------------------------------------
                             16 ; special function bits 
                             17 ;--------------------------------------------------------
                             18 ;--------------------------------------------------------
                             19 ; internal ram data
                             20 ;--------------------------------------------------------
                             21 	.area _DATA
                             22 ;--------------------------------------------------------
                             23 ; overlayable items in internal ram 
                             24 ;--------------------------------------------------------
                             25 	.area _OVERLAY
                             26 ;--------------------------------------------------------
                             27 ; indirectly addressable internal ram data
                             28 ;--------------------------------------------------------
                             29 	.area _ISEG
                             30 ;--------------------------------------------------------
                             31 ; bit data
                             32 ;--------------------------------------------------------
                             33 	.area _BSEG
                             34 ;--------------------------------------------------------
                             35 ; external ram data
                             36 ;--------------------------------------------------------
                             37 	.area _XSEG
                             38 ;--------------------------------------------------------
                             39 ; global & static initialisations
                             40 ;--------------------------------------------------------
                             41 	.area _GSINIT
                             42 	.area _GSFINAL
                             43 	.area _GSINIT
                             44 ;--------------------------------------------------------
                             45 ; Home
                             46 ;--------------------------------------------------------
                             47 	.area _HOME
                             48 ;	strncpy.c 8
                             49 ;	genLabel
                             50 ;	genFunction
                             51 ;	---------------------------------
                             52 ; Function strncpy
                             53 ; ---------------------------------
   0000                      54 ___strncpy_start:
   0000                      55 _strncpy:
   0000 E8 FC                56 	lda	sp,-4(sp)
                             57 ;	strncpy.c 13
                             58 ;	genAssign
                             59 ;	AOP_STK for 
                             60 ;	AOP_STK for _strncpy_os1_1_1
   0002 F8 06                61 	lda	hl,6(sp)
   0004 2A                   62 	ld	a,(hl+)
   0005 5E                   63 	ld	e,(hl)
   0006 F8 00                64 	lda	hl,0(sp)
   0008 22                   65 	ld	(hl+),a
   0009 73                   66 	ld	(hl),e
                             67 ;	strncpy.c 14
                             68 ;	genAssign
                             69 ;	AOP_STK for _strncpy_i_1_1
   000A 23                   70 	inc	hl
   000B 36 00                71 	ld	(hl),#0x00
   000D 23                   72 	inc	hl
   000E 36 00                73 	ld	(hl),#0x00
                             74 ;	genAssign
                             75 ;	(operands are equal 3)
                             76 ;	genAssign
                             77 ;	AOP_STK for _strncpy_os1_1_1
                             78 ;	AOP_STK for 
   0010 F8 00                79 	lda	hl,0(sp)
   0012 2A                   80 	ld	a,(hl+)
   0013 5E                   81 	ld	e,(hl)
   0014 F8 06                82 	lda	hl,6(sp)
   0016 22                   83 	ld	(hl+),a
   0017 73                   84 	ld	(hl),e
                             85 ;	genAssign
                             86 ;	AOP_STK for _strncpy_i_1_1
   0018 F8 02                87 	lda	hl,2(sp)
   001A 36 00                88 	ld	(hl),#0x00
   001C 23                   89 	inc	hl
   001D 36 00                90 	ld	(hl),#0x00
                             91 ;	genLabel
   001F                      92 00106$:
                             93 ;	genCmpLt
                             94 ;	AOP_STK for _strncpy_i_1_1
                             95 ;	AOP_STK for 
   001F F8 03                96 	lda	hl,3(sp)
   0021 7E                   97 	ld	a,(hl)
   0022 EE 80                98 	xor	a,#0x80
   0024 5F                   99 	ld	e,a
   0025 F8 0B               100 	lda	hl,11(sp)
   0027 7E                  101 	ld	a,(hl)
   0028 EE 80               102 	xor	a,#0x80
   002A 57                  103 	ld	d,a
   002B F8 02               104 	lda	hl,2(sp)
   002D 7E                  105 	ld	a,(hl)
   002E F8 0A               106 	lda	hl,10(sp)
   0030 96                  107 	sub	a,(hl)
   0031 7B                  108 	ld	a,e
   0032 9A                  109 	sbc	a,d
   0033 D2r95s00            110 	jp	nc,00109$
                            111 ;	strncpy.c 15
                            112 ;	genPointerGet
                            113 ;	AOP_STK for 
   0036 2B                  114 	dec	hl
   0037 2B                  115 	dec	hl
   0038 5E                  116 	ld	e,(hl)
   0039 23                  117 	inc	hl
   003A 56                  118 	ld	d,(hl)
   003B 1A                  119 	ld	a,(de)
   003C 4F                  120 	ld	c,a
                            121 ;	genPlus
                            122 ;	AOP_STK for 
                            123 ;	genPlusIncr
   003D 2B                  124 	dec	hl
   003E 34                  125 	inc	(hl)
   003F 20 02               126 	jr	nz,00116$
   0041 23                  127 	inc	hl
   0042 34                  128 	inc	(hl)
   0043                     129 00116$:
                            130 ;	genAssign (pointer)
                            131 ;	AOP_STK for 
   0043 F8 06               132 	lda	hl,6(sp)
   0045 5E                  133 	ld	e,(hl)
   0046 23                  134 	inc	hl
   0047 56                  135 	ld	d,(hl)
   0048 79                  136 	ld	a,c
   0049 12                  137 	ld	(de),a
                            138 ;	genPlus
                            139 ;	AOP_STK for 
                            140 ;	genPlusIncr
   004A 2B                  141 	dec	hl
   004B 34                  142 	inc	(hl)
   004C 20 02               143 	jr	nz,00117$
   004E 23                  144 	inc	hl
   004F 34                  145 	inc	(hl)
   0050                     146 00117$:
                            147 ;	genCmpEq
                            148 ; genCmpEq: left 1, right 1, result 0
   0050 79                  149 	ld	a,c
   0051 B7                  150 	or	a,a
   0052 C2r8Bs00            151 	jp	nz,00108$
   0055 18 03               152 	jr	00119$
   0057                     153 00118$:
   0057 C3r8Bs00            154 	jp	00108$
   005A                     155 00119$:
                            156 ;	strncpy.c 16
                            157 ;	genAssign
                            158 ;	AOP_STK for 
                            159 ;	(registers are the same)
                            160 ;	genAssign
                            161 ;	AOP_STK for _strncpy_i_1_1
   005A F8 02               162 	lda	hl,2(sp)
   005C 4E                  163 	ld	c,(hl)
   005D 23                  164 	inc	hl
   005E 46                  165 	ld	b,(hl)
                            166 ;	genLabel
   005F                     167 00101$:
                            168 ;	genPlus
                            169 ;	genPlusIncr
   005F 03                  170 	inc	bc
                            171 ;	genCmpLt
                            172 ;	AOP_STK for 
   0060 78                  173 	ld	a,b
   0061 EE 80               174 	xor	a,#0x80
   0063 5F                  175 	ld	e,a
   0064 F8 0B               176 	lda	hl,11(sp)
   0066 7E                  177 	ld	a,(hl)
   0067 EE 80               178 	xor	a,#0x80
   0069 57                  179 	ld	d,a
   006A 79                  180 	ld	a,c
   006B 2B                  181 	dec	hl
   006C 96                  182 	sub	a,(hl)
   006D 7B                  183 	ld	a,e
   006E 9A                  184 	sbc	a,d
   006F D2r83s00            185 	jp	nc,00103$
                            186 ;	strncpy.c 17
                            187 ;	genAssign (pointer)
                            188 ;	AOP_STK for 
   0072 F8 06               189 	lda	hl,6(sp)
   0074 5E                  190 	ld	e,(hl)
   0075 23                  191 	inc	hl
   0076 56                  192 	ld	d,(hl)
   0077 3E 00               193 	ld	a,#0x00
   0079 12                  194 	ld	(de),a
                            195 ;	genPlus
                            196 ;	AOP_STK for 
                            197 ;	genPlusIncr
   007A 2B                  198 	dec	hl
   007B 34                  199 	inc	(hl)
   007C 20 02               200 	jr	nz,00120$
   007E 23                  201 	inc	hl
   007F 34                  202 	inc	(hl)
   0080                     203 00120$:
                            204 ;	genGoto
   0080 C3r5Fs00            205 	jp	00101$
                            206 ;	genLabel
   0083                     207 00103$:
                            208 ;	strncpy.c 18
                            209 ;	genRet
                            210 ;	AOP_STK for _strncpy_os1_1_1
   0083 F8 00               211 	lda	hl,0(sp)
   0085 5E                  212 	ld	e,(hl)
   0086 23                  213 	inc	hl
   0087 56                  214 	ld	d,(hl)
   0088 C3r9As00            215 	jp	00110$
                            216 ;	genLabel
   008B                     217 00108$:
                            218 ;	strncpy.c 14
                            219 ;	genPlus
                            220 ;	AOP_STK for _strncpy_i_1_1
                            221 ;	genPlusIncr
   008B F8 02               222 	lda	hl,2(sp)
   008D 34                  223 	inc	(hl)
   008E 20 02               224 	jr	nz,00121$
   0090 23                  225 	inc	hl
   0091 34                  226 	inc	(hl)
   0092                     227 00121$:
                            228 ;	genAssign
                            229 ;	AOP_STK for _strncpy_i_1_1
                            230 ;	(registers are the same)
                            231 ;	genGoto
   0092 C3r1Fs00            232 	jp	00106$
                            233 ;	genLabel
   0095                     234 00109$:
                            235 ;	strncpy.c 20
                            236 ;	genRet
                            237 ;	AOP_STK for _strncpy_os1_1_1
   0095 F8 00               238 	lda	hl,0(sp)
   0097 5E                  239 	ld	e,(hl)
   0098 23                  240 	inc	hl
   0099 56                  241 	ld	d,(hl)
                            242 ;	genLabel
   009A                     243 00110$:
                            244 ;	genEndFunction
   009A E8 04               245 	lda	sp,4(sp)
   009C C9                  246 	ret
   009D                     247 ___strncpy_end:
                            248 	.area _CODE
                            249 ;--------------------------------------------------------
                            250 ; code
                            251 ;--------------------------------------------------------
                            252 	.area _CODE
                            253 	.area _CODE
