                              1 	;; Little demo illustrating how to use the graphical possibilities
                              2 	;;  of the GB (background, window and animated sprite)
                              3 	;; I have used fixed-point values for both the position and
                              4 	;;  speed of objects to get smooth movements
                              5 	;; 
                              6 	;; OBJ data		: 0x8000 -> 0x8FFF (unsigned)
                              7 	;; Window data		: 0x8800 -> 0x97FF (signed)
                              8 	;; Background data	: 0x8800 -> 0x97FF (signed)
                              9 	;; 
                             10 	;; Tiled 0xFC -> 0xFF are standard tiles (all black -> all white)
                             11 	;; 
                             12 	;; Keys:
                             13 	;; Arrow keys		: Change the speed (and direction) of the sprite
                             14 	;; Arrow keys + A	: Change the speed (and direction) of the window
                             15 	;; Arrow keys + B	: Change the speed (and direction) of the background
                             16 	;; START		: Open/close the door
                             17 	;; SELECT		: Basic fading effect
                             18 	;; 
                             19 	;; Note that the window is kept in the lower right part of the screen
                             20 	;; since it can't be made transparent
                             21 
                             22 	.include	"../../libc/gb/global.s"
                    0000      1 	.NEAR_CALLS = 0
                              2 	;; Changed by astorgb.pl to 1
                    0000      3 	__RGBDS__	= 0
                              4 
                              5 	
                              6 	;;  Screen dimensions 
                    0013      7 	.MAXCURSPOSX	= 0x13	; In tiles
                    0011      8 	.MAXCURSPOSY	= 0x11
                              9 
                    0080     10 	.START		= 0x80
                    0040     11 	.SELECT		= 0x40
                    0020     12 	.B		= 0x20
                    0010     13 	.A		= 0x10
                    0008     14 	.DOWN		= 0x08
                    0004     15 	.UP		= 0x04
                    0002     16 	.LEFT		= 0x02
                    0001     17 	.RIGHT		= 0x01
                             18 
                    00A0     19 	.SCREENWIDTH	= 0xA0
                    0090     20 	.SCREENHEIGHT	= 0x90
                    0007     21 	.MINWNDPOSX	= 0x07
                    0000     22 	.MINWNDPOSY	= 0x00
                    00A6     23 	.MAXWNDPOSX	= 0xA6
                    008F     24 	.MAXWNDPOSY	= 0x8F
                             25 
                    0001     26 	.VBL_IFLAG	= 0x01
                    0002     27 	.LCD_IFLAG	= 0x02
                    0004     28 	.TIM_IFLAG	= 0x04
                    0008     29 	.SIO_IFLAG	= 0x08
                    0010     30 	.JOY_IFLAG	= 0x10
                             31  
                    0000     32 	.P1		= 0x00	; Joystick: 1.1.P15.P14.P13.P12.P11.P10
                    0001     33 	.SB		= 0x01	; Serial IO data buffer
                    0002     34 	.SC		= 0x02	; Serial IO control register
                    0004     35 	.DIV		= 0x04	; Divider register
                    0005     36 	.TIMA		= 0x05	; Timer counter
                    0006     37 	.TMA		= 0x06	; Timer modulo
                    0007     38 	.TAC		= 0x07	; Timer control
                    000F     39 	.IF		= 0x0F	; Interrupt flags: 0.0.0.JST.SIO.TIM.LCD.VBL
                    0010     40 	.NR10		= 0x10	; Sound register
                    0011     41 	.NR11		= 0x11	; Sound register
                    0012     42 	.NR12		= 0x12	; Sound register
                    0013     43 	.NR13		= 0x13	; Sound register
                    0014     44 	.NR14		= 0x14	; Sound register
                    0016     45 	.NR21		= 0x16	; Sound register
                    0017     46 	.NR22		= 0x17	; Sound register
                    0018     47 	.NR23		= 0x18	; Sound register
                    0019     48 	.NR24		= 0x19	; Sound register
                    001A     49 	.NR30		= 0x1A	; Sound register
                    001B     50 	.NR31		= 0x1B	; Sound register
                    001C     51 	.NR32		= 0x1C	; Sound register
                    001D     52 	.NR33		= 0x1D	; Sound register
                    001E     53 	.NR34		= 0x1E	; Sound register
                    0020     54 	.NR41		= 0x20	; Sound register
                    0021     55 	.NR42		= 0x21	; Sound register
                    0022     56 	.NR43		= 0x22	; Sound register
                    0023     57 	.NR44		= 0x23	; Sound register
                    0024     58 	.NR50		= 0x24	; Sound register
                    0025     59 	.NR51		= 0x25	; Sound register
                    0026     60 	.NR52		= 0x26	; Sound register
                    0040     61 	.LCDC		= 0x40	; LCD control
                    0041     62 	.STAT		= 0x41	; LCD status
                    0042     63 	.SCY		= 0x42	; Scroll Y
                    0043     64 	.SCX		= 0x43	; Scroll X
                    0044     65 	.LY		= 0x44	; LCDC Y-coordinate
                    0045     66 	.LYC		= 0x45	; LY compare
                    0046     67 	.DMA		= 0x46	; DMA transfer
                    0047     68 	.BGP		= 0x47	; BG palette data
                    0048     69 	.OBP0		= 0x48	; OBJ palette 0 data
                    0049     70 	.OBP1		= 0x49	; OBJ palette 1 data
                    004A     71 	.WY		= 0x4A	; Window Y coordinate
                    004B     72 	.WX		= 0x4B	; Window X coordinate
                    004D     73 	.KEY1		= 0x4D	; CPU speed
                    004F     74 	.VBK		= 0x4F	; VRAM bank
                    0051     75 	.HDMA1		= 0x51	; DMA control 1
                    0052     76 	.HDMA2		= 0x52	; DMA control 2
                    0053     77 	.HDMA3		= 0x53	; DMA control 3
                    0054     78 	.HDMA4		= 0x54	; DMA control 4
                    0055     79 	.HDMA5		= 0x55	; DMA control 5
                    0056     80 	.RP		= 0x56	; IR port
                    0068     81 	.BCPS		= 0x68	; BG color palette specification
                    0069     82 	.BCPD		= 0x69	; BG color palette data
                    006A     83 	.OCPS		= 0x6A	; OBJ color palette specification
                    006B     84 	.OCPD		= 0x6B	; OBJ color palette data
                    0070     85 	.SVBK		= 0x70	; WRAM bank
                    00FF     86 	.IE		= 0xFF	; Interrupt enable
                             87 
                    0001     88 	.G_MODE		= 0x01	; Graphic mode
                    0002     89 	.T_MODE		= 0x02	; Text mode (bit 2)
                    0002     90 	.T_MODE_OUT	= 0x02	; Text mode output only
                    0003     91 	.T_MODE_INOUT	= 0x03	; Text mode with input
                    0004     92 	.M_NO_SCROLL	= 0x04	; Disables scrolling of the screen in text mode
                    0008     93 	.M_NO_INTERP	= 0x08	; Disables special character interpretation
                             94 
                    2000     95 	.MBC1_ROM_PAGE	= 0x2000 ; Address to write to for MBC1 switching
                             96 	
                             97 	;; Status codes for IO
                    0000     98 	.IO_IDLE	= 0x00
                    0001     99 	.IO_SENDING	= 0x01
                    0002    100 	.IO_RECEIVING	= 0x02
                    0004    101 	.IO_ERROR	= 0x04
                            102 
                            103 	;; Type of IO data
                    0066    104 	.DT_IDLE	= 0x66
                    0055    105 	.DT_RECEIVING	= 0x55
                            106 
                            107 	;; Table of routines for modes
                    01E0    108 	.MODE_TABLE	= 0x01E0
                            109 
                            110 	;; C related
                            111 	;; Overheap of a banked call.  Used for parameters
                            112 	;;  = ret + real ret + bank
                            113 
                    0000    114 	.if .NEAR_CALLS
                            115 	.BANKOV		= 2
                            116 
                            117 	.else
                    0006    118 	.BANKOV		= 6
                            119 
                            120 	.endif
                            121 	
                            122 	.globl	banked_call
                            123 	.globl	banked_ret
                            124 	
                            125 	;; Global variables
                            126 	.globl	.mode
                            127 
                            128 	.globl	__cpu
                            129 
                            130 	.globl	__io_out
                            131 	.globl	__io_in
                            132 	.globl	__io_status
                            133 
                            134 	;; Global routines
                            135 	.globl	.set_mode
                            136 
                            137 	.globl	.reset
                            138 
                            139 	.globl	.display_off
                            140 
                            141 	.globl	.wait_vbl_done
                            142 
                            143 	;; Interrupt routines 
                            144 	.globl	.add_VBL
                            145 	.globl	.add_LCD
                            146 	.globl	.add_TIM
                            147 	.globl	.add_SIO
                            148 	.globl	.add_JOY
                            149 
                            150 	;; Symbols defined at link time
                            151 	.globl	.STACK
                            152 	.globl	.OAM
                            153 	.globl	.refresh_OAM
                            154 
                            155 	;; Initialization routine   
                            156 	.globl	.init
                            157 
                            158 	;; Main user routine	
                            159 	.globl	_main
                             23 
                             24 	.globl	.init_vram
                             25 	.globl	.copy_vram
                             26 	.globl	.init_wtt
                             27 	.globl	.init_btt
                             28 	.globl	.set_xy_wtt
                             29 	.globl	.mv_sprite
                             30 	.globl	.set_sprite_prop
                             31 	.globl	.set_sprite_tile
                             32 	.globl	.jpad
                             33 
                    0030     34 	.NBDFRAMES	= .endfilm-.film	; Nb frames for the door
                    0007     35 	.NBSFRAMES	= 0x07			; Nb frames for the sprite
                    0080     36 	.WINSZX		= 0x80			; Size of the picture in the window
                    0050     37 	.WINSZY		= 0x50
                    0027     38 	.MINWINX	= .MAXWNDPOSX-.WINSZX+1 ; Bounds of the window origin
                    0040     39 	.MINWINY	= .MAXWNDPOSY-.WINSZY+1
                    00A6     40 	.MAXWINX	= .MAXWNDPOSX
                    008F     41 	.MAXWINY	= .MAXWNDPOSY
                    0010     42 	.FADESTEP	= 0x10			; Nb steps for the fading effect
                    0060     43 	.STARTFADE	= 0x06*.FADESTEP	; Initial value for the fading effect
                             44 
                    0000     45 	.CLOSED		= 0x00
                    0001     46 	.OPENING	= 0x01
                    0002     47 	.OPENED		= 0x02
                    0003     48 	.CLOSING	= 0x03
                             49 
                             50 	.module	Space
                             51 
                             52 	.area	_BSS
                             53 
   0000                      54 .time:				; Global "time" value (counter)
   0000                      55 	.ds	0x01
                             56 
   0001                      57 .doorstate:			; State of the door (OPENED, CLOSED...)
   0001                      58 	.ds	0x01
   0002                      59 .doorpos:			; Current position in the door animation
   0002                      60 	.ds	0x01
                             61 
   0003                      62 .color:				; Current color for fading effect
   0003                      63 	.ds	0x01
                             64 
   0004                      65 .sframe:			; Current frame of the sprite
   0004                      66 	.ds	0x01
                             67 
   0005                      68 .bposx:				; Background position (fixed point)
   0005                      69 	.ds	0x02
   0007                      70 .bposy:
   0007                      71 	.ds	0x02
   0009                      72 .bspx:				; Background speed (fixed point)
   0009                      73 	.ds	0x02
   000B                      74 .bspy:
   000B                      75 	.ds	0x02
                             76 
   000D                      77 .wposx:				; Window position (fixed point)
   000D                      78 	.ds	0x02
   000F                      79 .wposy:
   000F                      80 	.ds	0x02
   0011                      81 .wspx:				; Window speed (fixed point)
   0011                      82 	.ds	0x02
   0013                      83 .wspy:
   0013                      84 	.ds	0x02
                             85 
   0015                      86 .sposx:				; Sprite position (fixed point)
   0015                      87 	.ds	0x02
   0017                      88 .sposy:
   0017                      89 	.ds	0x02
   0019                      90 .sspx:				; Sprite speed (fixed point)
   0019                      91 	.ds	0x02
   001B                      92 .sspy:
   001B                      93 	.ds	0x02
                             94 
                             95 	.area	_CODE
                             96 
   0000                      97 _main::
   0000 F3                   98 	DI			; Disable interrupts
                             99 	;; Turn the screen off
   0001 CD 00 00            100 	CALL	.display_off
                            101 
   0004 AF                  102 	XOR	A
   0005 EA 00 00            103 	LD	(.time),A
   0008 EA 03 00            104 	LD	(.color),A
                            105 
   000B 3E E4               106 	LD	A,#0b11100100
   000D E0 47               107 	LDH	(.BGP),A
   000F E0 48               108 	LDH	(.OBP0),A
                            109 
                            110 	; Initialize tiles
   0011 21 00 80            111 	LD	HL,#0x8000
   0014 11 00 10            112 	LD	DE,#0x1000
   0017 06 00               113 	LD	B,#0x00
   0019 CD 00 00            114 	CALL	.init_vram	; Init the tile set at 0x8000 with 0x00
   001C 06 FF               115 	LD	B,#0xFF
   001E CD 00 00            116 	CALL	.init_btt	; Init the tiles tables with 0xFF
   0021 CD 00 00            117 	CALL	.init_wtt
                            118 
   0024 01 00 00            119 	LD	BC,#.tp0	; Move tiles (standard tiles)
   0027 21 C0 8F            120 	LD	HL,#0x9000-(.endtp0-.tp0)
   002A 11 40 00            121 	LD	DE,#.endtp0-.tp0
   002D CD 00 00            122 	CALL	.copy_vram
                            123 
   0030 01 40 00            124 	LD	BC,#.tp1	; Move tiles (earth)
   0033 21 00 80            125 	LD	HL,#0x8000
   0036 11 C0 01            126 	LD	DE,#.endtp1-.tp1
   0039 CD 00 00            127 	CALL	.copy_vram
                            128 
   003C 01 00 02            129 	LD	BC,#.tp2	; Move tiles (door)
   003F 21 00 88            130 	LD	HL,#0x8800
   0042 11 10 02            131 	LD	DE,#.endtp2-.tp2
   0045 CD 00 00            132 	CALL	.copy_vram
                            133 
   0048 01 10 04            134 	LD	BC,#.tp3	; Move tiles (background)
   004B 21 00 90            135 	LD	HL,#0x9000
   004E 11 D0 02            136 	LD	DE,#.endtp3-.tp3
   0051 CD 00 00            137 	CALL	.copy_vram
                            138 
                            139 	;; Draw the background
   0054 01 E0 06            140 	LD	BC,#.bkg_tiles
   0057 21 00 98            141 	LD	HL,#0x9800
   005A 11 00 04            142 	LD	DE,#0x0400	; One whole GB Screen
   005D CD 00 00            143 	CALL	.copy_vram
                            144 
                            145 	;; Draw the frame in the window
   0060 01 EE 0A            146 	LD	BC,#.frame_tiles
   0063 11 00 00            147 	LD	DE,#0x0000/8	; Place image at (0x00,0x00)
   0066 21 0A 10            148 	LD	HL,#0x8050/8	; Image size is 0x80 x 0x50
   0069 CD 00 00            149 	CALL	.set_xy_wtt
                            150 
                            151 	;; Draw the door in the window
   006C 01 8E 0B            152 	LD	BC,#.door1_tiles
   006F 11 02 02            153 	LD	DE,#0x1010/8	; Place image at (0x10,0x10)
   0072 21 06 0C            154 	LD	HL,#0x6030/8	; Image size is 0x60 x 0x30
   0075 CD 00 00            155 	CALL	.set_xy_wtt
   0078 3E 00               156 	LD	A,#.CLOSED
   007A EA 01 00            157 	LD	(.doorstate),A
                            158 
                            159 	; Initialize background
   007D AF                  160 	XOR	A
   007E EA 05 00            161 	LD	(.bposx),A
   0081 E0 43               162 	LDH	(.SCX),A
   0083 EA 06 00            163 	LD	(.bposx+1),A
   0086 EA 07 00            164 	LD	(.bposy),A
   0089 E0 42               165 	LDH	(.SCY),A
   008B EA 08 00            166 	LD	(.bposy+1),A
   008E 3E FF               167 	LD	A,#-0x01
   0090 EA 09 00            168 	LD	(.bspx),A
   0093 AF                  169 	XOR	A
   0094 EA 0A 00            170 	LD	(.bspx+1),A
   0097 AF                  171 	XOR	A
   0098 EA 0B 00            172 	LD	(.bspy),A
   009B 3E 80               173 	LD	A,#0x80
   009D EA 0C 00            174 	LD	(.bspy+1),A
                            175 
                            176 	; Initialize window
   00A0 3E A6               177 	LD	A,#.MAXWNDPOSX
   00A2 EA 0D 00            178 	LD	(.wposx),A
   00A5 E0 4B               179 	LDH	(.WX),A
   00A7 AF                  180 	XOR	A
   00A8 EA 0E 00            181 	LD	(.wposx+1),A
   00AB 3E 8F               182 	LD	A,#.MAXWNDPOSY
   00AD EA 0F 00            183 	LD	(.wposy),A
   00B0 E0 4A               184 	LDH	(.WY),A
   00B2 AF                  185 	XOR	A
   00B3 EA 10 00            186 	LD	(.wposy+1),A
   00B6 3E FF               187 	LD	A,#-0x01
   00B8 EA 11 00            188 	LD	(.wspx),A
   00BB 3E 80               189 	LD	A,#0x80
   00BD EA 12 00            190 	LD	(.wspx+1),A
   00C0 3E FF               191 	LD	A,#-0x01
   00C2 EA 13 00            192 	LD	(.wspy),A
   00C5 3E C0               193 	LD	A,#0xC0
   00C7 EA 14 00            194 	LD	(.wspy+1),A
                            195 
                            196 	; Initialize sprite
   00CA AF                  197 	XOR	A
   00CB EA 04 00            198 	LD	(.sframe),A
   00CE 0E 00               199 	LD	C,#0x00		; Sprite 0x00
   00D0 16 00               200 	LD	D,#0x00		; Default sprite properties
   00D2 CD 00 00            201 	CALL	.set_sprite_prop
   00D5 0E 01               202 	LD	C,#0x01		; Sprite 0x01
   00D7 16 00               203 	LD	D,#0x00		; Default sprite properties
   00D9 CD 00 00            204 	CALL	.set_sprite_prop
                            205 
   00DC 3E 10               206 	LD	A,#0x10
   00DE EA 15 00            207 	LD	(.sposx),A
   00E1 AF                  208 	XOR	A
   00E2 EA 16 00            209 	LD	(.sposx+1),A
   00E5 3E 10               210 	LD	A,#0x10
   00E7 EA 17 00            211 	LD	(.sposy),A
   00EA AF                  212 	XOR	A
   00EB EA 18 00            213 	LD	(.sposy+1),A
   00EE AF                  214 	XOR	A
   00EF EA 19 00            215 	LD	(.sspx),A
   00F2 3E 40               216 	LD	A,#0x40
   00F4 EA 1A 00            217 	LD	(.sspx+1),A
   00F7 AF                  218 	XOR	A
   00F8 EA 1B 00            219 	LD	(.sspy),A
   00FB 3E 40               220 	LD	A,#0x40
   00FD EA 1C 00            221 	LD	(.sspy+1),A
   0100 CD B4 04            222 	CALL	.tile_sprite	; Set sprite tiles
   0103 CD D0 04            223 	CALL	.place_sprite	; Place sprites
                            224 
   0106 3E E7               225 	LD	A,#0b11100111	; LCD		= On
                            226 				; WindowBank	= 0x9C00
                            227 				; Window	= On
                            228 				; BG Chr	= 0x8800
                            229 				; BG Bank	= 0x9800
                            230 				; OBJ		= 8x16
                            231 				; OBJ		= On
                            232 				; BG		= On
   0108 E0 40               233 	LDH	(.LCDC),A
   010A FB                  234 	EI			; Enable interrupts
   010B                     235 1$:
   010B FA 00 00            236 	LD	A,(.time)
   010E 3C                  237 	INC	A
   010F EA 00 00            238 	LD	(.time),A
                            239 
   0112 06 04               240 	LD	B,#0x04		; Skip four VBLs (slow down animation)
   0114                     241 2$:
   0114 CD 00 00            242 	CALL	.wait_vbl_done
   0117 05                  243 	DEC	B
   0118 20 FA               244 	JR	NZ,2$
                            245 
   011A CD B8 02            246 	CALL	.fade
   011D CD 44 04            247 	CALL	.door
   0120 CD F6 02            248 	CALL	.scroll
   0123 CD 9E 04            249 	CALL	.animate_sprite
                            250 
   0126 CD 00 00            251 	CALL	.jpad
   0129 57                  252 	LD	D,A
                            253 
   012A E6 20               254 	AND	#.B		; Is B pressed ?
   012C C2 D3 01            255 	JP	NZ,10$
                            256 
   012F 7A                  257 	LD	A,D
   0130 E6 10               258 	AND	#.A		; Is A pressed ?
   0132 C2 45 02            259 	JP	NZ,20$
                            260 
   0135 7A                  261 	LD	A,D
   0136 E6 40               262 	AND	#.SELECT	; Is SELECT pressed ?
   0138 28 05               263 	JR	Z,3$
   013A 3E 60               264 	LD	A,#.STARTFADE
   013C EA 03 00            265 	LD	(.color),A
   013F                     266 3$:
   013F 7A                  267 	LD	A,D
   0140 E6 80               268 	AND	#.START		; Is START pressed ?
   0142 28 20               269 	JR	Z,5$
   0144 FA 01 00            270 	LD	A,(.doorstate)
   0147 FE 00               271 	CP	#.CLOSED
   0149 20 0B               272 	JR	NZ,4$
   014B 3E 01               273 	LD	A,#.OPENING
   014D EA 01 00            274 	LD	(.doorstate),A
   0150 AF                  275 	XOR	A
   0151 EA 02 00            276 	LD	(.doorpos),A
   0154 18 0E               277 	JR	5$
   0156                     278 4$:
   0156 FE 02               279 	CP	#.OPENED
   0158 20 0A               280 	JR	NZ,5$
   015A 3E 03               281 	LD	A,#.CLOSING
   015C EA 01 00            282 	LD	(.doorstate),A
   015F 3E 30               283 	LD	A,#.NBDFRAMES
   0161 EA 02 00            284 	LD	(.doorpos),A
   0164                     285 5$:
   0164 7A                  286 	LD	A,D
   0165 E6 04               287 	AND	#.UP		; Is UP pressed ?
   0167 28 17               288 	JR	Z,6$
   0169 01 10 00            289 	LD	BC,#0x0010
   016C FA 1B 00            290 	LD	A,(.sspy)	; Load speed into HL
   016F 67                  291 	LD	H,A
   0170 FA 1C 00            292 	LD	A,(.sspy+1)
   0173 6F                  293 	LD	L,A
   0174 7D                  294 	LD	A,L		; Substract BC from HL
   0175 91                  295 	SUB	C
   0176 EA 1C 00            296 	LD	(.sspy+1),A
   0179 7C                  297 	LD	A,H
   017A 98                  298 	SBC	B
   017B EA 1B 00            299 	LD	(.sspy),A	; Store new speed
   017E 18 19               300 	JR	7$
   0180                     301 6$:
   0180 7A                  302 	LD	A,D
   0181 E6 08               303 	AND	#.DOWN		; Is DOWN pressed ?
   0183 28 14               304 	JR	Z,7$
   0185 01 10 00            305 	LD	BC,#0x0010
   0188 FA 1B 00            306 	LD	A,(.sspy)	; Load speed into HL
   018B 67                  307 	LD	H,A
   018C FA 1C 00            308 	LD	A,(.sspy+1)
   018F 6F                  309 	LD	L,A
   0190 09                  310 	ADD	HL,BC		; Add them
   0191 7C                  311 	LD	A,H		; Store new speed
   0192 EA 1B 00            312 	LD	(.sspy),A
   0195 7D                  313 	LD	A,L
   0196 EA 1C 00            314 	LD	(.sspy+1),A
   0199                     315 7$:
   0199 7A                  316 	LD	A,D
   019A E6 02               317 	AND	#.LEFT		; Is LEFT pressed ?
   019C 28 18               318 	JR	Z,8$
   019E 01 10 00            319 	LD	BC,#0x0010
   01A1 FA 19 00            320 	LD	A,(.sspx)	; Load speed into HL
   01A4 67                  321 	LD	H,A
   01A5 FA 1A 00            322 	LD	A,(.sspx+1)
   01A8 6F                  323 	LD	L,A
   01A9 7D                  324 	LD	A,L		; Substract BC from HL
   01AA 91                  325 	SUB	C
   01AB EA 1A 00            326 	LD	(.sspx+1),A
   01AE 7C                  327 	LD	A,H
   01AF 98                  328 	SBC	B
   01B0 EA 19 00            329 	LD	(.sspx),A	; Store new speed
   01B3 C3 0B 01            330 	JP	1$
   01B6                     331 8$:
   01B6 7A                  332 	LD	A,D
   01B7 E6 01               333 	AND	#.RIGHT		; Is RIGHT pressed ?
   01B9 CA 0B 01            334 	JP	Z,1$
   01BC 01 10 00            335 	LD	BC,#0x0010
   01BF FA 19 00            336 	LD	A,(.sspx)	; Load speed into HL
   01C2 67                  337 	LD	H,A
   01C3 FA 1A 00            338 	LD	A,(.sspx+1)
   01C6 6F                  339 	LD	L,A
   01C7 09                  340 	ADD	HL,BC		; Add them
   01C8 7C                  341 	LD	A,H		; Store new speed
   01C9 EA 19 00            342 	LD	(.sspx),A
   01CC 7D                  343 	LD	A,L
   01CD EA 1A 00            344 	LD	(.sspx+1),A
   01D0 C3 0B 01            345 	JP	1$
                            346 
   01D3                     347 10$:
   01D3 7A                  348 	LD	A,D
   01D4 E6 04               349 	AND	#.UP		; Is UP pressed ?
   01D6 CA F0 01            350 	JP	Z,11$
   01D9 01 10 00            351 	LD	BC,#0x0010
   01DC FA 0B 00            352 	LD	A,(.bspy)	; Load speed into HL
   01DF 67                  353 	LD	H,A
   01E0 FA 0C 00            354 	LD	A,(.bspy+1)
   01E3 6F                  355 	LD	L,A
   01E4 7D                  356 	LD	A,L		; Substract BC from HL
   01E5 91                  357 	SUB	C
   01E6 EA 0C 00            358 	LD	(.bspy+1),A
   01E9 7C                  359 	LD	A,H
   01EA 98                  360 	SBC	B
   01EB EA 0B 00            361 	LD	(.bspy),A	; Store new speed
   01EE 18 1A               362 	JR	12$
   01F0                     363 11$:
   01F0 7A                  364 	LD	A,D
   01F1 E6 08               365 	AND	#.DOWN		; Is DOWN pressed ?
   01F3 CA 0A 02            366 	JP	Z,12$
   01F6 01 10 00            367 	LD	BC,#0x0010
   01F9 FA 0B 00            368 	LD	A,(.bspy)	; Load speed into HL
   01FC 67                  369 	LD	H,A
   01FD FA 0C 00            370 	LD	A,(.bspy+1)
   0200 6F                  371 	LD	L,A
   0201 09                  372 	ADD	HL,BC		; Add them
   0202 7C                  373 	LD	A,H		; Store new speed
   0203 EA 0B 00            374 	LD	(.bspy),A
   0206 7D                  375 	LD	A,L
   0207 EA 0C 00            376 	LD	(.bspy+1),A
   020A                     377 12$:
   020A 7A                  378 	LD	A,D
   020B E6 02               379 	AND	#.LEFT		; Is LEFT pressed ?
   020D CA 28 02            380 	JP	Z,13$
   0210 01 10 00            381 	LD	BC,#0x0010
   0213 FA 09 00            382 	LD	A,(.bspx)	; Load speed into HL
   0216 67                  383 	LD	H,A
   0217 FA 0A 00            384 	LD	A,(.bspx+1)
   021A 6F                  385 	LD	L,A
   021B 7D                  386 	LD	A,L		; Substract BC from HL
   021C 91                  387 	SUB	C
   021D EA 0A 00            388 	LD	(.bspx+1),A
   0220 7C                  389 	LD	A,H
   0221 98                  390 	SBC	B
   0222 EA 09 00            391 	LD	(.bspx),A	; Store new speed
   0225 C3 0B 01            392 	JP	1$
   0228                     393 13$:
   0228 7A                  394 	LD	A,D
   0229 E6 01               395 	AND	#.RIGHT		; Is RIGHT pressed ?
   022B CA 0B 01            396 	JP	Z,1$
   022E 01 10 00            397 	LD	BC,#0x0010
   0231 FA 09 00            398 	LD	A,(.bspx)	; Load speed into HL
   0234 67                  399 	LD	H,A
   0235 FA 0A 00            400 	LD	A,(.bspx+1)
   0238 6F                  401 	LD	L,A
   0239 09                  402 	ADD	HL,BC		; Add them
   023A 7C                  403 	LD	A,H		; Store new speed
   023B EA 09 00            404 	LD	(.bspx),A
   023E 7D                  405 	LD	A,L
   023F EA 0A 00            406 	LD	(.bspx+1),A
   0242 C3 0B 01            407 	JP	1$
                            408 
   0245                     409 20$:
   0245 7A                  410 	LD	A,D
   0246 E6 04               411 	AND	#.UP		; Is UP pressed ?
   0248 CA 62 02            412 	JP	Z,21$
   024B 01 10 00            413 	LD	BC,#0x0010
   024E FA 13 00            414 	LD	A,(.wspy)	; Load speed into HL
   0251 67                  415 	LD	H,A
   0252 FA 14 00            416 	LD	A,(.wspy+1)
   0255 6F                  417 	LD	L,A
   0256 7D                  418 	LD	A,L		; Substract BC from HL
   0257 91                  419 	SUB	C
   0258 EA 14 00            420 	LD	(.wspy+1),A
   025B 7C                  421 	LD	A,H
   025C 98                  422 	SBC	B
   025D EA 13 00            423 	LD	(.wspy),A	; Store new speed
   0260 18 1A               424 	JR	22$
   0262                     425 21$:
   0262 7A                  426 	LD	A,D
   0263 E6 08               427 	AND	#.DOWN		; Is DOWN pressed ?
   0265 CA 7C 02            428 	JP	Z,22$
   0268 01 10 00            429 	LD	BC,#0x0010
   026B FA 13 00            430 	LD	A,(.wspy)	; Load speed into HL
   026E 67                  431 	LD	H,A
   026F FA 14 00            432 	LD	A,(.wspy+1)
   0272 6F                  433 	LD	L,A
   0273 09                  434 	ADD	HL,BC		; Add them
   0274 7C                  435 	LD	A,H		; Store new speed
   0275 EA 13 00            436 	LD	(.wspy),A
   0278 7D                  437 	LD	A,L
   0279 EA 14 00            438 	LD	(.wspy+1),A
   027C                     439 22$:
   027C 7A                  440 	LD	A,D
   027D E6 02               441 	AND	#.LEFT		; Is LEFT pressed ?
   027F CA 9A 02            442 	JP	Z,23$
   0282 01 10 00            443 	LD	BC,#0x0010
   0285 FA 11 00            444 	LD	A,(.wspx)	; Load speed into HL
   0288 67                  445 	LD	H,A
   0289 FA 12 00            446 	LD	A,(.wspx+1)
   028C 6F                  447 	LD	L,A
   028D 7D                  448 	LD	A,L		; Substract BC from HL
   028E 91                  449 	SUB	C
   028F EA 12 00            450 	LD	(.wspx+1),A
   0292 7C                  451 	LD	A,H
   0293 98                  452 	SBC	B
   0294 EA 11 00            453 	LD	(.wspx),A	; Store new speed
   0297 C3 0B 01            454 	JP	1$
   029A                     455 23$:
   029A 7A                  456 	LD	A,D
   029B E6 01               457 	AND	#.RIGHT		; Is RIGHT pressed ?
   029D CA 0B 01            458 	JP	Z,1$
   02A0 01 10 00            459 	LD	BC,#0x0010
   02A3 FA 11 00            460 	LD	A,(.wspx)	; Load speed into HL
   02A6 67                  461 	LD	H,A
   02A7 FA 12 00            462 	LD	A,(.wspx+1)
   02AA 6F                  463 	LD	L,A
   02AB 09                  464 	ADD	HL,BC		; Add them
   02AC 7C                  465 	LD	A,H		; Store new speed
   02AD EA 11 00            466 	LD	(.wspx),A
   02B0 7D                  467 	LD	A,L
   02B1 EA 12 00            468 	LD	(.wspx+1),A
   02B4 C3 0B 01            469 	JP	1$
                            470 
   02B7 C9                  471 	RET
                            472 
                            473 	;; Fade the screen (off and on)
   02B8                     474 .fade:
                            475 
   02B8 FA 03 00            476 	LD	A,(.color)	; Load color into A
   02BB FE 00               477 	CP	#0x00
   02BD C8                  478 	RET	Z
   02BE FE 60               479 	CP	#.STARTFADE
   02C0 20 04               480 	JR	NZ,1$
   02C2 3E F9               481 	LD	A,#0b11111001
   02C4 18 26               482 	JR	6$
   02C6                     483 1$:
   02C6 FE 50               484 	CP	#.STARTFADE-.FADESTEP
   02C8 20 04               485 	JR	NZ,2$
   02CA 3E FE               486 	LD	A,#0b11111110
   02CC 18 1E               487 	JR	6$
   02CE                     488 2$:
   02CE FE 40               489 	CP	#.STARTFADE-0x02*.FADESTEP
   02D0 20 04               490 	JR	NZ,3$
   02D2 3E FF               491 	LD	A,#0b11111111
   02D4 18 16               492 	JR	6$
   02D6                     493 3$:
   02D6 FE 30               494 	CP	#.STARTFADE-0x03*.FADESTEP
   02D8 20 04               495 	JR	NZ,4$
   02DA 3E FE               496 	LD	A,#0b11111110
   02DC 18 0E               497 	JR	6$
   02DE                     498 4$:
   02DE FE 20               499 	CP	#.STARTFADE-0x04*.FADESTEP
   02E0 20 04               500 	JR	NZ,5$
   02E2 3E F9               501 	LD	A,#0b11111001
   02E4 18 06               502 	JR	6$
   02E6                     503 5$:
   02E6 FE 10               504 	CP	#.STARTFADE-0x05*.FADESTEP
   02E8 20 04               505 	JR	NZ,7$
   02EA 3E E4               506 	LD	A,#0b11100100
   02EC                     507 6$:
   02EC E0 47               508 	LDH	(.BGP),A
   02EE                     509 7$:
   02EE FA 03 00            510 	LD	A,(.color)
   02F1 3D                  511 	DEC	A
   02F2 EA 03 00            512 	LD	(.color),A
   02F5 C9                  513 	RET
                            514 
                            515 	;; Scroll the background, the window and the sprite
   02F6                     516 .scroll:
                            517 
                            518 	;; Update background
   02F6 FA 05 00            519 	LD	A,(.bposx)	; Load background position into HL
   02F9 67                  520 	LD	H,A
   02FA FA 06 00            521 	LD	A,(.bposx+1)
   02FD 6F                  522 	LD	L,A
   02FE FA 09 00            523 	LD	A,(.bspx)	; Load background speed into BC
   0301 47                  524 	LD	B,A
   0302 FA 0A 00            525 	LD	A,(.bspx+1)
   0305 4F                  526 	LD	C,A
   0306 09                  527 	ADD	HL,BC		; Add them
   0307 7D                  528 	LD	A,L		; Store new background position
   0308 EA 06 00            529 	LD	(.bposx+1),A
   030B 7C                  530 	LD	A,H
   030C EA 05 00            531 	LD	(.bposx),A
   030F E0 43               532 	LDH	(.SCX),A	; Update position
                            533 
   0311 FA 07 00            534 	LD	A,(.bposy)	; Load background position into HL
   0314 67                  535 	LD	H,A
   0315 FA 08 00            536 	LD	A,(.bposy+1)
   0318 6F                  537 	LD	L,A
   0319 FA 0B 00            538 	LD	A,(.bspy)	; Load background speed into BC
   031C 47                  539 	LD	B,A
   031D FA 0C 00            540 	LD	A,(.bspy+1)
   0320 4F                  541 	LD	C,A
   0321 09                  542 	ADD	HL,BC		; Add them
   0322 7D                  543 	LD	A,L		; Store new background position
   0323 EA 08 00            544 	LD	(.bposy+1),A
   0326 7C                  545 	LD	A,H
   0327 EA 07 00            546 	LD	(.bposy),A
   032A E0 42               547 	LDH	(.SCY),A	; Update position
                            548 
                            549 	;; Update window
   032C FA 11 00            550 	LD	A,(.wspx)	; Load window speed into BC
   032F 47                  551 	LD	B,A
   0330 FA 12 00            552 	LD	A,(.wspx+1)
   0333 4F                  553 	LD	C,A
   0334 FA 0D 00            554 	LD	A,(.wposx)	; Load window position into HL
   0337 67                  555 	LD	H,A
   0338 FA 0E 00            556 	LD	A,(.wposx+1)
   033B 6F                  557 	LD	L,A
   033C 09                  558 	ADD	HL,BC		; Add them
   033D 7D                  559 	LD	A,L		; Store new window position
   033E EA 0E 00            560 	LD	(.wposx+1),A
   0341 7C                  561 	LD	A,H
   0342 EA 0D 00            562 	LD	(.wposx),A
                            563 
                            564 	;; X position
   0345 FA 0D 00            565 	LD	A,(.wposx)	; Check window position
   0348 26 00               566 	LD	H,#0x00		; We must use 16 bit registers since the
   034A 6F                  567 	LD	L,A		;  window is not less than 0x80 pixels
   034B 01 A6 00            568 	LD	BC,#.MAXWINX
   034E 7D                  569 	LD	A,L		; Substract BC from HL
   034F 91                  570 	SUB	C
   0350 7C                  571 	LD	A,H
   0351 98                  572 	SBC	B
   0352 E6 80               573 	AND	#0x80
   0354 20 13               574 	JR	NZ,1$		; Maximum value ?
   0356 3E A6               575 	LD	A,#.MAXWINX
   0358 EA 0D 00            576 	LD	(.wposx),A	; Correct window position
   035B FA 12 00            577 	LD	A,(.wspx+1)	; Load window speed into BC
   035E 4F                  578 	LD	C,A
   035F FA 11 00            579 	LD	A,(.wspx)
   0362 47                  580 	LD	B,A
   0363 E6 80               581 	AND	#0x80		; Speed is already negative ?
   0365 20 31               582 	JR	NZ,3$
   0367 18 22               583 	JR	2$
   0369                     584 1$:
   0369 FA 0D 00            585 	LD	A,(.wposx)	; Check window position
   036C 26 00               586 	LD	H,#0x00		; We must use 16 bit registers since the
   036E 6F                  587 	LD	L,A		;  window is not less than 0x80 pixels
   036F 01 28 00            588 	LD	BC,#.MINWINX+1
   0372 7D                  589 	LD	A,L		; Substract BC from HL
   0373 91                  590 	SUB	C
   0374 7C                  591 	LD	A,H
   0375 98                  592 	SBC	B
   0376 E6 80               593 	AND	#0x80
   0378 28 1E               594 	JR	Z,3$		; Minimum value ?
   037A 3E 27               595 	LD	A,#.MINWINX
   037C EA 0D 00            596 	LD	(.wposx),A	; Correct window position
   037F FA 12 00            597 	LD	A,(.wspx+1)	; Load window speed into BC
   0382 4F                  598 	LD	C,A
   0383 FA 11 00            599 	LD	A,(.wspx)
   0386 47                  600 	LD	B,A
   0387 E6 80               601 	AND	#0x80		; Speed is already positive ?
   0389 28 0D               602 	JR	Z,3$
   038B                     603 2$:
   038B 21 00 00            604 	LD	HL,#0x00	; Invert speed
   038E 7D                  605 	LD	A,L		; Substract BC from HL
   038F 91                  606 	SUB	C
   0390 EA 12 00            607 	LD	(.wspx+1),A
   0393 7C                  608 	LD	A,H
   0394 98                  609 	SBC	B
   0395 EA 11 00            610 	LD	(.wspx),A	; Store new speed
   0398                     611 3$:
   0398 FA 0D 00            612 	LD	A,(.wposx)
   039B E0 4B               613 	LDH	(.WX),A		; Update position
                            614 
   039D FA 13 00            615 	LD	A,(.wspy)	; Load window speed into BC
   03A0 47                  616 	LD	B,A
   03A1 FA 14 00            617 	LD	A,(.wspy+1)
   03A4 4F                  618 	LD	C,A
   03A5 FA 0F 00            619 	LD	A,(.wposy)	; Load window position into HL
   03A8 67                  620 	LD	H,A
   03A9 FA 10 00            621 	LD	A,(.wposy+1)
   03AC 6F                  622 	LD	L,A
   03AD 09                  623 	ADD	HL,BC		; Add them
   03AE 7D                  624 	LD	A,L		; Store new window position
   03AF EA 10 00            625 	LD	(.wposy+1),A
   03B2 7C                  626 	LD	A,H
   03B3 EA 0F 00            627 	LD	(.wposy),A
                            628 
                            629 	;; Y position
   03B6 FA 0F 00            630 	LD	A,(.wposy)	; Check window position
   03B9 26 00               631 	LD	H,#0x00		; We must use 16 bit registers since the
   03BB 6F                  632 	LD	L,A		;  window is not less than 0x80 pixels
   03BC 01 8F 00            633 	LD	BC,#.MAXWINY
   03BF 7D                  634 	LD	A,L		; Substract BC from HL
   03C0 91                  635 	SUB	C
   03C1 7C                  636 	LD	A,H
   03C2 98                  637 	SBC	B
   03C3 E6 80               638 	AND	#0x80
   03C5 20 13               639 	JR	NZ,4$		; Maximum value ?
   03C7 3E 8F               640 	LD	A,#.MAXWINY
   03C9 EA 0F 00            641 	LD	(.wposy),A	; Correct window position
   03CC FA 14 00            642 	LD	A,(.wspy+1)	; Load window speed into BC
   03CF 4F                  643 	LD	C,A
   03D0 FA 13 00            644 	LD	A,(.wspy)
   03D3 47                  645 	LD	B,A
   03D4 E6 80               646 	AND	#0x80		; Speed is already negative ?
   03D6 20 31               647 	JR	NZ,6$
   03D8 18 22               648 	JR	5$
   03DA                     649 4$:
   03DA FA 0F 00            650 	LD	A,(.wposy)	; Check window position
   03DD 26 00               651 	LD	H,#0x00		; We must use 16 bit registers since the
   03DF 6F                  652 	LD	L,A		;  window is not less than 0x80 pixels
   03E0 01 41 00            653 	LD	BC,#.MINWINY+1
   03E3 7D                  654 	LD	A,L		; Substract BC from HL
   03E4 91                  655 	SUB	C
   03E5 7C                  656 	LD	A,H
   03E6 98                  657 	SBC	B
   03E7 E6 80               658 	AND	#0x80
   03E9 28 1E               659 	JR	Z,6$		; Minimum value ?
   03EB 3E 40               660 	LD	A,#.MINWINY
   03ED EA 0F 00            661 	LD	(.wposy),A	; Correct window position
   03F0 FA 14 00            662 	LD	A,(.wspy+1)	; Load window speed into BC
   03F3 4F                  663 	LD	C,A
   03F4 FA 13 00            664 	LD	A,(.wspy)
   03F7 47                  665 	LD	B,A
   03F8 E6 80               666 	AND	#0x80		; Speed is already positive ?
   03FA 28 0D               667 	JR	Z,6$
   03FC                     668 5$:
   03FC 21 00 00            669 	LD	HL,#0x00	; Invert speed
   03FF 7D                  670 	LD	A,L		; Substract BC from HL
   0400 91                  671 	SUB	C
   0401 EA 14 00            672 	LD	(.wspy+1),A
   0404 7C                  673 	LD	A,H
   0405 98                  674 	SBC	B
   0406 EA 13 00            675 	LD	(.wspy),A	; Store new speed
   0409                     676 6$:
   0409 FA 0F 00            677 	LD	A,(.wposy)
   040C E0 4A               678 	LDH	(.WY),A		; Update position
                            679 
                            680 	;; Update sprite
   040E FA 15 00            681 	LD	A,(.sposx)	; Load sprite position into HL
   0411 67                  682 	LD	H,A
   0412 FA 16 00            683 	LD	A,(.sposx+1)
   0415 6F                  684 	LD	L,A
   0416 FA 19 00            685 	LD	A,(.sspx)	; Load sprite speed into BC
   0419 47                  686 	LD	B,A
   041A FA 1A 00            687 	LD	A,(.sspx+1)
   041D 4F                  688 	LD	C,A
   041E 09                  689 	ADD	HL,BC		; Add them
   041F 7D                  690 	LD	A,L		; Store new sprite position
   0420 EA 16 00            691 	LD	(.sposx+1),A
   0423 7C                  692 	LD	A,H
   0424 EA 15 00            693 	LD	(.sposx),A
                            694 
   0427 FA 17 00            695 	LD	A,(.sposy)	; Load sprite position into HL
   042A 67                  696 	LD	H,A
   042B FA 18 00            697 	LD	A,(.sposy+1)
   042E 6F                  698 	LD	L,A
   042F FA 1B 00            699 	LD	A,(.sspy)	; Load sprite speed into BC
   0432 47                  700 	LD	B,A
   0433 FA 1C 00            701 	LD	A,(.sspy+1)
   0436 4F                  702 	LD	C,A
   0437 09                  703 	ADD	HL,BC		; Add them
   0438 7D                  704 	LD	A,L		; Store new sprite position
   0439 EA 18 00            705 	LD	(.sposy+1),A
   043C 7C                  706 	LD	A,H
   043D EA 17 00            707 	LD	(.sposy),A
   0440 CD D0 04            708 	CALL	.place_sprite	; Update position
                            709 
   0443 C9                  710 	RET
                            711 
                            712 	;; Open and close the door
   0444                     713 .door:
   0444 FA 01 00            714 	LD	A,(.doorstate)
   0447 FE 01               715 	CP	#.OPENING
   0449 CA 52 04            716 	JP	Z,.open_door
   044C FE 03               717 	CP	#.CLOSING
   044E CA 79 04            718 	JP	Z,.close_door
   0451 C9                  719 	RET
                            720 
   0452                     721 .open_door:
   0452 FA 02 00            722 	LD	A,(.doorpos)
   0455 21 AC 0D            723 	LD	HL,#.film+0x02
   0458 06 00               724 	LD	B,#0x00
   045A 4F                  725 	LD	C,A
   045B 09                  726 	ADD	HL,BC
   045C 4E                  727 	LD	C,(HL)
   045D 23                  728 	INC	HL
   045E 46                  729 	LD	B,(HL)
   045F 11 02 02            730 	LD	DE,#0x1010/8	; Place image at (0x10,0x10)
   0462 21 06 0C            731 	LD	HL,#0x6030/8	; Image size is 0x60 x 0x30
   0465 CD 00 00            732 	CALL	.set_xy_wtt
                            733 
   0468 FA 02 00            734 	LD	A,(.doorpos)
   046B C6 02               735 	ADD	A,#0x02
   046D EA 02 00            736 	LD	(.doorpos),A
   0470 FE 30               737 	CP	#.NBDFRAMES
   0472 C0                  738 	RET	NZ
   0473 3E 02               739 	LD	A,#.OPENED
   0475 EA 01 00            740 	LD	(.doorstate),A
   0478 C9                  741 	RET
                            742 
   0479                     743 .close_door:
   0479 FA 02 00            744 	LD	A,(.doorpos)
   047C 21 A8 0D            745 	LD	HL,#.film-0x02
   047F 06 00               746 	LD	B,#0x00
   0481 4F                  747 	LD	C,A
   0482 09                  748 	ADD	HL,BC
   0483 4E                  749 	LD	C,(HL)
   0484 23                  750 	INC	HL
   0485 46                  751 	LD	B,(HL)
   0486 11 02 02            752 	LD	DE,#0x1010/8	; Place image at (0x10,0x10)
   0489 21 06 0C            753 	LD	HL,#0x6030/8	; Image size is 0x60 x 0x30
   048C CD 00 00            754 	CALL	.set_xy_wtt
                            755 
   048F FA 02 00            756 	LD	A,(.doorpos)
   0492 D6 02               757 	SUB	A,#0x02
   0494 EA 02 00            758 	LD	(.doorpos),A
   0497 C0                  759 	RET	NZ
   0498 3E 00               760 	LD	A,#.CLOSED
   049A EA 01 00            761 	LD	(.doorstate),A
   049D C9                  762 	RET
                            763 
                            764 	;; Animate sprite
   049E                     765 .animate_sprite:
   049E FA 00 00            766 	LD	A,(.time)
   04A1 E6 07               767 	AND	#0x07
   04A3 C0                  768 	RET	NZ
                            769 
   04A4 FA 04 00            770 	LD	A,(.sframe)
   04A7 3C                  771 	INC	A
   04A8 FE 07               772 	CP	#.NBSFRAMES
   04AA 20 01               773 	JR	NZ,1$
   04AC AF                  774 	XOR	A
   04AD                     775 1$:
   04AD EA 04 00            776 	LD	(.sframe),A
                            777 
   04B0 CD B4 04            778 	CALL	.tile_sprite
   04B3 C9                  779 	RET
                            780 
                            781 	;; Set sprite tiles
   04B4                     782 .tile_sprite:
   04B4 FA 04 00            783 	LD	A,(.sframe)
   04B7 21 E0 0A            784 	LD	HL,#.earth_tiles
   04BA 07                  785 	RLCA
   04BB 06 00               786 	LD	B,#0x00
   04BD 4F                  787 	LD	C,A
   04BE 09                  788 	ADD	HL,BC
   04BF 0E 00               789 	LD	C,#0x00		; Sprite 0x00
   04C1 2A                  790 	LD	A,(HL+)
   04C2 57                  791 	LD	D,A
   04C3 E5                  792 	PUSH	HL
   04C4 CD 00 00            793 	CALL	.set_sprite_tile
   04C7 E1                  794 	POP	HL
                            795 
   04C8 0E 01               796 	LD	C,#0x01		; Sprite 0x01
   04CA 2A                  797 	LD	A,(HL+)
   04CB 57                  798 	LD	D,A
   04CC CD 00 00            799 	CALL	.set_sprite_tile
                            800 
   04CF C9                  801 	RET
                            802 
                            803 	;; Place sprite
   04D0                     804 .place_sprite:
   04D0 0E 00               805 	LD	C,#0x00		; Sprite 0x00
   04D2 FA 15 00            806 	LD	A,(.sposx)
   04D5 57                  807 	LD	D,A
   04D6 FA 17 00            808 	LD	A,(.sposy)
   04D9 5F                  809 	LD	E,A
   04DA D5                  810 	PUSH	DE		; Store position
   04DB CD 00 00            811 	CALL	.mv_sprite
                            812 
   04DE 0E 01               813 	LD	C,#0x01		; Sprite 0x01
   04E0 D1                  814 	POP	DE		; Restore position
   04E1 3E 08               815 	LD	A,#0x08
   04E3 82                  816 	ADD	A,D
   04E4 57                  817 	LD	D,A
   04E5 CD 00 00            818 	CALL	.mv_sprite
                            819 
   04E8 C9                  820 	RET
                            821 
                            822 	.area	_LIT
                            823 
   0000                     824 .tp0:
                            825 
   0000                     826 .std_data:
                            827 
                            828 	; Basic tiles (0xFC to 0xFF)
                            829 
   0000 FF FF FF FF FF FF   830 	.byte	0xFF,0xFF,0xFF,0xFF,0xFF,0xFF,0xFF,0xFF,0xFF,0xFF,0xFF,0xFF,0xFF,0xFF,0xFF,0xFF
        FF FF FF FF FF FF
        FF FF FF FF
   0010 FF 00 FF 00 FF 00   831 	.byte	0xFF,0x00,0xFF,0x00,0xFF,0x00,0xFF,0x00,0xFF,0x00,0xFF,0x00,0xFF,0x00,0xFF,0x00
        FF 00 FF 00 FF 00
        FF 00 FF 00
   0020 00 FF 00 FF 00 FF   832 	.byte	0x00,0xFF,0x00,0xFF,0x00,0xFF,0x00,0xFF,0x00,0xFF,0x00,0xFF,0x00,0xFF,0x00,0xFF
        00 FF 00 FF 00 FF
        00 FF 00 FF
   0030 00 00 00 00 00 00   833 	.byte	0x00,0x00,0x00,0x00,0x00,0x00,0x00,0x00,0x00,0x00,0x00,0x00,0x00,0x00,0x00,0x00
        00 00 00 00 00 00
        00 00 00 00
                            834 
   0040                     835 .endtp0:
                            836 
   0040                     837 .tp1:
                            838 
   0040                     839 .earth_data:
                            840 
                            841 	; Tile 0x00
   0040 07 07 18 1F 32 2D   842 	.byte	0x07,0x07,0x18,0x1F,0x32,0x2D,0x71,0x4E,0x70,0x4F,0xF8,0x87,0xF8,0x87,0xF8,0x87
        71 4E 70 4F F8 87
        F8 87 F8 87
   0050 FC 83 FE 81 7F 40   843 	.byte	0xFC,0x83,0xFE,0x81,0x7F,0x40,0x7F,0x40,0x3F,0x20,0x1F,0x18,0x07,0x07,0x00,0x00
        7F 40 3F 20 1F 18
        07 07 00 00
   0060 C0 C0 F0 30 78 88   844 	.byte	0xC0,0xC0,0xF0,0x30,0x78,0x88,0x3C,0xC4,0x5C,0xA4,0x9E,0x62,0x3E,0xC2,0x3E,0xC2
        3C C4 5C A4 9E 62
        3E C2 3E C2
   0070 5E A2 7E 82 0C F4   845 	.byte	0x5E,0xA2,0x7E,0x82,0x0C,0xF4,0x0C,0xF4,0x98,0x68,0xB0,0x70,0xC0,0xC0,0x00,0x00
        0C F4 98 68 B0 70
        C0 C0 00 00
   0080 07 07 1F 18 2F 30   846 	.byte	0x07,0x07,0x1F,0x18,0x2F,0x30,0x4F,0x70,0x6F,0x50,0x9F,0xE0,0x9F,0xE0,0xBF,0xC0
        4F 70 6F 50 9F E0
        9F E0 BF C0
   0090 FF 80 B7 C8 63 5C   847 	.byte	0xFF,0x80,0xB7,0xC8,0x63,0x5C,0x43,0x7C,0x3F,0x20,0x1F,0x18,0x07,0x07,0x00,0x00
        43 7C 3F 20 1F 18
        07 07 00 00
   00A0 C0 C0 B0 70 18 E8   848 	.byte	0xC0,0xC0,0xB0,0x70,0x18,0xE8,0x0C,0xF4,0x0C,0xF4,0x82,0x7E,0x82,0x7E,0x86,0x7A
        0C F4 0C F4 82 7E
        82 7E 86 7A
   00B0 C6 3A E6 1A F4 0C   849 	.byte	0xC6,0x3A,0xE6,0x1A,0xF4,0x0C,0xFC,0x04,0xF8,0x08,0xF0,0x30,0xC0,0xC0,0x00,0x00
        FC 04 F8 08 F0 30
        C0 C0 00 00
                            850 
                            851 	; Tile 0x08
   00C0 07 07 1E 19 20 3F   852 	.byte	0x07,0x07,0x1E,0x19,0x20,0x3F,0x40,0x7F,0x42,0x7D,0x81,0xFE,0x81,0xFE,0x83,0xFC
        40 7F 42 7D 81 FE
        81 FE 83 FC
   00D0 D7 A8 BB C4 6E 51   853 	.byte	0xD7,0xA8,0xBB,0xC4,0x6E,0x51,0x7C,0x43,0x3F,0x20,0x1F,0x18,0x07,0x07,0x00,0x00
        7C 43 3F 20 1F 18
        07 07 00 00
   00E0 C0 C0 70 B0 E8 18   854 	.byte	0xC0,0xC0,0x70,0xB0,0xE8,0x18,0xF4,0x0C,0xF4,0x0C,0xFE,0x02,0xFE,0x02,0xFE,0x02
        F4 0C F4 0C FE 02
        FE 02 FE 02
   00F0 FE 02 7E 82 3C C4   855 	.byte	0xFE,0x02,0x7E,0x82,0x3C,0xC4,0x3C,0xC4,0xF8,0x08,0xF0,0x30,0xC0,0xC0,0x00,0x00
        3C C4 F8 08 F0 30
        C0 C0 00 00
   0100 07 07 1B 1C 20 3F   856 	.byte	0x07,0x07,0x1B,0x1C,0x20,0x3F,0x40,0x7F,0x40,0x7F,0xE0,0x9F,0x90,0xEF,0x89,0xF6
        40 7F 40 7F E0 9F
        90 EF 89 F6
   0110 8D F2 9F E0 5E 61   857 	.byte	0x8D,0xF2,0x9F,0xE0,0x5E,0x61,0x6F,0x50,0x3F,0x20,0x1F,0x18,0x07,0x07,0x00,0x00
        6F 50 3F 20 1F 18
        07 07 00 00
   0120 C0 C0 B0 70 28 D8   858 	.byte	0xC0,0xC0,0xB0,0x70,0x28,0xD8,0x04,0xFC,0x2C,0xD4,0x1E,0xE2,0x1E,0xE2,0x3E,0xC2
        04 FC 2C D4 1E E2
        1E E2 3E C2
   0130 7E 82 B6 4A E4 1C   859 	.byte	0x7E,0x82,0xB6,0x4A,0xE4,0x1C,0xC4,0x3C,0xF8,0x08,0xF0,0x30,0xC0,0xC0,0x00,0x00
        C4 3C F8 08 F0 30
        C0 C0 00 00
                            860 
                            861 	; Tile 0x10
   0140 07 07 18 1F 20 3F   862 	.byte	0x07,0x07,0x18,0x1F,0x20,0x3F,0x40,0x7F,0x40,0x7F,0xEE,0x91,0xF1,0x8E,0xE0,0x9F
        40 7F 40 7F EE 91
        F1 8E E0 9F
   0150 E0 9F F1 8E 71 4E   863 	.byte	0xE0,0x9F,0xF1,0x8E,0x71,0x4E,0x72,0x4D,0x3F,0x20,0x1F,0x18,0x07,0x07,0x00,0x00
        72 4D 3F 20 1F 18
        07 07 00 00
   0160 C0 C0 F0 30 08 F8   864 	.byte	0xC0,0xC0,0xF0,0x30,0x08,0xF8,0x04,0xFC,0x04,0xFC,0x02,0xFE,0x02,0xFE,0x92,0x6E
        04 FC 04 FC 02 FE
        02 FE 92 6E
   0170 D6 2A FE 02 EC 14   865 	.byte	0xD6,0x2A,0xFE,0x02,0xEC,0x14,0xFC,0x04,0xF8,0x08,0xF0,0x30,0xC0,0xC0,0x00,0x00
        FC 04 F8 08 F0 30
        C0 C0 00 00
   0180 07 07 1D 1A 36 29   866 	.byte	0x07,0x07,0x1D,0x1A,0x36,0x29,0x5C,0x63,0x6C,0x53,0xCE,0xB1,0x9F,0xE0,0x9E,0xE1
        5C 63 6C 53 CE B1
        9F E0 9E E1
   0190 AE D1 BF C0 47 78   867 	.byte	0xAE,0xD1,0xBF,0xC0,0x47,0x78,0x47,0x78,0x2F,0x30,0x1F,0x18,0x07,0x07,0x00,0x00
        47 78 2F 30 1F 18
        07 07 00 00
   01A0 C0 C0 70 B0 08 F8   868 	.byte	0xC0,0xC0,0x70,0xB0,0x08,0xF8,0x04,0xFC,0x04,0xFC,0xE2,0x1E,0x32,0xCE,0x0E,0xF2
        04 FC 04 FC E2 1E
        32 CE 0E F2
   01B0 0E F2 1E E2 1C E4   869 	.byte	0x0E,0xF2,0x1E,0xE2,0x1C,0xE4,0x2C,0xD4,0xF8,0x08,0xF0,0x30,0xC0,0xC0,0x00,0x00
        2C D4 F8 08 F0 30
        C0 C0 00 00
                            870 
                            871 	; Tile 0x18
   01C0 07 07 1E 19 33 2C   872 	.byte	0x07,0x07,0x1E,0x19,0x33,0x2C,0x49,0x76,0x42,0x7D,0xC4,0xBB,0xC1,0xBE,0xC1,0xBE
        49 76 42 7D C4 BB
        C1 BE C1 BE
   01D0 E2 9D F3 8C 78 47   873 	.byte	0xE2,0x9D,0xF3,0x8C,0x78,0x47,0x78,0x47,0x3C,0x23,0x1C,0x1B,0x07,0x07,0x00,0x00
        78 47 3C 23 1C 1B
        07 07 00 00
   01E0 C0 C0 70 B0 68 98   874 	.byte	0xC0,0xC0,0x70,0xB0,0x68,0x98,0xC4,0x3C,0xC4,0x3C,0xEE,0x12,0xF2,0x0E,0xE2,0x1E
        C4 3C C4 3C EE 12
        F2 0E E2 1E
   01F0 E2 1E F2 0E 7C 84   875 	.byte	0xE2,0x1E,0xF2,0x0E,0x7C,0x84,0x7C,0x84,0xF8,0x08,0xF0,0x30,0xC0,0xC0,0x00,0x00
        7C 84 F8 08 F0 30
        C0 C0 00 00
                            876 
   0200                     877 .endtp1:
                            878 
   0200                     879 .tp2:
                            880 
   0200                     881 .frame_data:
                            882 
                            883 	; Tile 0x00
   0200 FF 00 80 7F 80 7F   884 	.byte	0xFF,0x00,0x80,0x7F,0x80,0x7F,0x80,0x7F,0x80,0x7F,0x80,0x7F,0x80,0x7F,0x80,0x7F
        80 7F 80 7F 80 7F
        80 7F 80 7F
   0210 FF 00 01 FE 03 FC   885 	.byte	0xFF,0x00,0x01,0xFE,0x03,0xFC,0x07,0xF8,0x0F,0xF0,0x1F,0xE0,0x3F,0xC0,0x7F,0x80
        07 F8 0F F0 1F E0
        3F C0 7F 80
   0220 FF 00 FE 01 FC 03   886 	.byte	0xFF,0x00,0xFE,0x01,0xFC,0x03,0xF8,0x07,0xF0,0x0F,0xE0,0x1F,0xC0,0x3F,0x80,0x7F
        F8 07 F0 0F E0 1F
        C0 3F 80 7F
   0230 FF 00 00 FF 00 FF   887 	.byte	0xFF,0x00,0x00,0xFF,0x00,0xFF,0x00,0xFF,0x00,0xFF,0x00,0xFF,0x00,0xFF,0x00,0xFF
        00 FF 00 FF 00 FF
        00 FF 00 FF
   0240 FF 00 FF 01 FD 03   888 	.byte	0xFF,0x00,0xFF,0x01,0xFD,0x03,0xF9,0x07,0xF1,0x0F,0xE1,0x1F,0xC1,0x3F,0x81,0x7F
        F9 07 F1 0F E1 1F
        C1 3F 81 7F
   0250 80 7F 81 7E 83 7C   889 	.byte	0x80,0x7F,0x81,0x7E,0x83,0x7C,0x87,0x78,0x8F,0x70,0x9F,0x60,0xBF,0x40,0xFF,0x00
        87 78 8F 70 9F 60
        BF 40 FF 00
   0260 FF 70 FF 98 EF B8   890 	.byte	0xFF,0x70,0xFF,0x98,0xEF,0xB8,0xCF,0xF8,0xFF,0x70,0xFF,0x00,0xFF,0x00,0xFF,0x01
        CF F8 FF 70 FF 00
        FF 00 FF 01
   0270 FF 00 FE 01 FC 03   891 	.byte	0xFF,0x00,0xFE,0x01,0xFC,0x03,0xF8,0x07,0xF0,0x0F,0xE0,0x1F,0xC0,0x3F,0xFF,0xFF
        F8 07 F0 0F E0 1F
        C0 3F FF FF
                            892 
                            893 	; Tile 0x08
   0280 00 FF 00 FF 00 FF   894 	.byte	0x00,0xFF,0x00,0xFF,0x00,0xFF,0x00,0xFF,0x00,0xFF,0x00,0xFF,0x00,0xFF,0xFF,0xFF
        00 FF 00 FF 00 FF
        00 FF FF FF
   0290 00 FF 01 FE 03 FC   895 	.byte	0x00,0xFF,0x01,0xFE,0x03,0xFC,0x07,0xF8,0x0F,0xF0,0x1F,0xE0,0x3F,0xC0,0xFF,0xFF
        07 F8 0F F0 1F E0
        3F C0 FF FF
   02A0 FF 00 FF 00 FF 00   896 	.byte	0xFF,0x00,0xFF,0x00,0xFF,0x00,0xFF,0x00,0xFF,0x00,0xFF,0x00,0xFF,0x00,0xFF,0xFF
        FF 00 FF 00 FF 00
        FF 00 FF FF
   02B0 FF 0E FF 13 FD 17   897 	.byte	0xFF,0x0E,0xFF,0x13,0xFD,0x17,0xF9,0x1F,0xFE,0x0F,0xE0,0x1F,0xC0,0x3F,0x80,0xFF
        F9 1F FE 0F E0 1F
        C0 3F 80 FF
   02C0 01 FF 01 FF 01 FF   898 	.byte	0x01,0xFF,0x01,0xFF,0x01,0xFF,0x01,0xFF,0x01,0xFF,0x01,0xFF,0x01,0xFF,0x01,0xFF
        01 FF 01 FF 01 FF
        01 FF 01 FF
   02D0 FF 01 FF 01 FD 03   899 	.byte	0xFF,0x01,0xFF,0x01,0xFD,0x03,0xF9,0x07,0xF1,0x0F,0xE1,0x1F,0xC1,0x3F,0x81,0x7F
        F9 07 F1 0F E1 1F
        C1 3F 81 7F
   02E0 80 7F 80 7F 80 7F   900 	.byte	0x80,0x7F,0x80,0x7F,0x80,0x7F,0x80,0x7F,0x80,0x7F,0x80,0x7F,0x80,0x7F,0x80,0x7F
        80 7F 80 7F 80 7F
        80 7F 80 7F
   02F0 01 FF 01 FF 03 FD   901 	.byte	0x01,0xFF,0x01,0xFF,0x03,0xFD,0x07,0xF9,0x0F,0xF1,0x1F,0xE1,0x3F,0xC1,0x7F,0x81
        07 F9 0F F1 1F E1
        3F C1 7F 81
                            902 
                            903 	; Tile 0x10
   0300 FF 01 FF 01 FF 01   904 	.byte	0xFF,0x01,0xFF,0x01,0xFF,0x01,0xFF,0x01,0xFF,0x01,0xFF,0x01,0xFF,0x01,0xFF,0x01
        FF 01 FF 01 FF 01
        FF 01 FF 01
   0310 01 FF 01 FE 03 FC   905 	.byte	0x01,0xFF,0x01,0xFE,0x03,0xFC,0x77,0xF8,0xFF,0x98,0xEF,0xB8,0xCF,0xF8,0x7F,0xF0
        77 F8 FF 98 EF B8
        CF F8 7F F0
   0320 FF 00 FF 00 FF 00   906 	.byte	0xFF,0x00,0xFF,0x00,0xFF,0x00,0xFF,0x0E,0xFF,0x13,0xFD,0x17,0xF9,0x1F,0xFF,0x0E
        FF 0E FF 13 FD 17
        F9 1F FF 0E
   0330 80 7F 81 7E 83 7C   907 	.byte	0x80,0x7F,0x81,0x7E,0x83,0x7C,0x87,0x78,0x8F,0x70,0x9F,0x60,0xBF,0x40,0xFF,0x7F
        87 78 8F 70 9F 60
        BF 40 FF 7F
   0340 01 FF 01 FF 01 FF   908 	.byte	0x01,0xFF,0x01,0xFF,0x01,0xFF,0x01,0xFF,0x01,0xFF,0x01,0xFF,0x01,0xFF,0xFF,0xFF
        01 FF 01 FF 01 FF
        01 FF FF FF
                            909 
   0350                     910 .door1_data:
                            911 
                            912 	; Tile 0x15
   0350 FF 00 00 FF 00 FF   913 	.byte	0xFF,0x00,0x00,0xFF,0x00,0xFF,0x00,0xFF,0x00,0xFF,0xFF,0xFF,0xFF,0x00,0x00,0xFF
        00 FF 00 FF FF FF
        FF 00 00 FF
   0360 00 FF 00 FF 00 FF   914 	.byte	0x00,0xFF,0x00,0xFF,0x00,0xFF,0xFF,0xFF,0xFF,0x00,0x00,0xFF,0x00,0xFF,0x00,0xFF
        FF FF FF 00 00 FF
        00 FF 00 FF
   0370 00 FF FF FF FF 00   915 	.byte	0x00,0xFF,0xFF,0xFF,0xFF,0x00,0x00,0xFF,0x00,0xFF,0x00,0xFF,0x00,0xFF,0xFF,0xFF
        00 FF 00 FF 00 FF
        00 FF FF FF
                            916 
   0380                     917 .door2_data:
                            918 
                            919 	; Tile 0x18
   0380 00 FF 00 FF 00 FF   920 	.byte	0x00,0xFF,0x00,0xFF,0x00,0xFF,0xFF,0xFF,0xFF,0x00,0x00,0xFF,0x00,0xFF,0x00,0xFF
        FF FF FF 00 00 FF
        00 FF 00 FF
   0390 00 FF FF FF FF 00   921 	.byte	0x00,0xFF,0xFF,0xFF,0xFF,0x00,0x00,0xFF,0x00,0xFF,0x00,0xFF,0x00,0xFF,0xFF,0xFF
        00 FF 00 FF 00 FF
        00 FF FF FF
   03A0 FF 00 00 FF 00 FF   922 	.byte	0xFF,0x00,0x00,0xFF,0x00,0xFF,0x00,0xFF,0x00,0xFF,0xFF,0xFF,0xFF,0x00,0x00,0xFF
        00 FF 00 FF FF FF
        FF 00 00 FF
   03B0 FF 00 00 FF 00 FF   923 	.byte	0xFF,0x00,0x00,0xFF,0x00,0xFF,0x00,0xFF,0x00,0xFF,0xFF,0xFF,0xFF,0xFF,0xFF,0xFF
        00 FF 00 FF FF FF
        FF FF FF FF
                            924 
   03C0                     925 .door3_data:
                            926 
                            927 	; Tile 0x1C
   03C0 00 FF FF FF FF 00   928 	.byte	0x00,0xFF,0xFF,0xFF,0xFF,0x00,0x00,0xFF,0x00,0xFF,0x00,0xFF,0x00,0xFF,0xFF,0xFF
        00 FF 00 FF 00 FF
        00 FF FF FF
   03D0 FF 00 00 FF 00 FF   929 	.byte	0xFF,0x00,0x00,0xFF,0x00,0xFF,0x00,0xFF,0x00,0xFF,0xFF,0xFF,0xFF,0x00,0x00,0xFF
        00 FF 00 FF FF FF
        FF 00 00 FF
   03E0 00 FF 00 FF 00 FF   930 	.byte	0x00,0xFF,0x00,0xFF,0x00,0xFF,0xFF,0xFF,0xFF,0x00,0x00,0xFF,0x00,0xFF,0x00,0xFF
        FF FF FF 00 00 FF
        00 FF 00 FF
   03F0 00 FF 00 FF 00 FF   931 	.byte	0x00,0xFF,0x00,0xFF,0x00,0xFF,0xFF,0xFF,0xFF,0xFF,0xFF,0xFF,0xFF,0xFF,0xFF,0xFF
        FF FF FF FF FF FF
        FF FF FF FF
                            932 
   0400                     933 .door4_data:
                            934 
                            935 	; Tile 0x20
   0400 00 FF FF FF FF FF   936 	.byte	0x00,0xFF,0xFF,0xFF,0xFF,0xFF,0xFF,0xFF,0xFF,0xFF,0xFF,0xFF,0xFF,0xFF,0xFF,0xFF
        FF FF FF FF FF FF
        FF FF FF FF
                            937 
   0410                     938 .endtp2:
                            939 
   0410                     940 .tp3:
                            941 
   0410                     942 .bkg_data:
                            943 
                            944 	; Tile 0x00
   0410 FF FF FF FF FF FF   945 	.byte	0xFF,0xFF,0xFF,0xFF,0xFF,0xFF,0xFF,0xFF,0xFF,0xFF,0xFF,0xEF,0xFF,0xFF,0xFF,0xFF
        FF FF FF FF FF EF
        FF FF FF FF
   0420 FF FF FF FF FF FF   946 	.byte	0xFF,0xFF,0xFF,0xFF,0xFF,0xFF,0xFF,0xFF,0xFF,0xFF,0xFF,0xDF,0xFF,0xFF,0xFF,0xFF
        FF FF FF FF FF DF
        FF FF FF FF
   0430 FF FF FF FB FF FF   947 	.byte	0xFF,0xFF,0xFF,0xFB,0xFF,0xFF,0xFF,0xFF,0xFF,0xFF,0xFF,0xFF,0xFF,0xFF,0xFF,0xFF
        FF FF FF FF FF FF
        FF FF FF FF
   0440 FF FF FF FF FF FF   948 	.byte	0xFF,0xFF,0xFF,0xFF,0xFF,0xFF,0xFF,0xFF,0xFF,0xFF,0xFF,0xFF,0xF7,0xF7,0xFF,0xFF
        FF FF FF FF FF FF
        F7 F7 FF FF
   0450 FF FF FF FF FF FF   949 	.byte	0xFF,0xFF,0xFF,0xFF,0xFF,0xFF,0xFF,0xFF,0xFF,0xDF,0xFF,0xFF,0xFF,0xFF,0xFF,0xFF
        FF FF FF DF FF FF
        FF FF FF FF
   0460 FF FF FF FF FF FF   950 	.byte	0xFF,0xFF,0xFF,0xFF,0xFF,0xFF,0xFF,0xFF,0xFF,0xFF,0xFF,0xFF,0xFF,0xFF,0xFF,0x7F
        FF FF FF FF FF FF
        FF FF FF 7F
   0470 FF FF FF FF FF FF   951 	.byte	0xFF,0xFF,0xFF,0xFF,0xFF,0xFF,0xFF,0xFF,0xFF,0xF7,0xFF,0xFF,0xFF,0xFF,0xFF,0xFF
        FF FF FF F7 FF FF
        FF FF FF FF
   0480 FF FF DF FF EF FF   952 	.byte	0xFF,0xFF,0xDF,0xFF,0xEF,0xFF,0xFF,0xF7,0xFF,0xFB,0xFF,0xFD,0xFF,0xFE,0xFE,0xFF
        FF F7 FF FB FF FD
        FF FE FE FF
                            953 
                            954 	; Tile 0x08
   0490 FF FF FF FF F7 FF   955 	.byte	0xFF,0xFF,0xFF,0xFF,0xF7,0xFF,0xFF,0xFF,0xFF,0xFF,0xFF,0xFF,0x7D,0xFE,0x7C,0x39
        FF FF FF FF FF FF
        7D FE 7C 39
   04A0 FF FF F7 FF EF FF   956 	.byte	0xFF,0xFF,0xF7,0xFF,0xEF,0xFF,0xFF,0xDF,0xFF,0xBF,0xFF,0x7F,0xFF,0xFF,0xFF,0xFF
        FF DF FF BF FF 7F
        FF FF FF FF
   04B0 FF FF FF FF FF FF   957 	.byte	0xFF,0xFF,0xFF,0xFF,0xFF,0xFF,0xFF,0xFF,0xFF,0xFF,0xDF,0xFF,0xFF,0xFF,0xFF,0xFF
        FF FF FF FF DF FF
        FF FF FF FF
   04C0 FF FF FF FF FF FF   958 	.byte	0xFF,0xFF,0xFF,0xFF,0xFF,0xFF,0xFF,0xFF,0xFF,0xFF,0xFE,0xFF,0xFF,0xFE,0xFF,0xFD
        FF FF FF FF FE FF
        FF FE FF FD
   04D0 BB 01 C7 83 C7 83   959 	.byte	0xBB,0x01,0xC7,0x83,0xC7,0x83,0xC7,0x83,0xBB,0x01,0x7C,0x39,0x7D,0xFE,0xFF,0xFF
        C7 83 BB 01 7C 39
        7D FE FF FF
   04E0 FF FF FF FF FF FF   960 	.byte	0xFF,0xFF,0xFF,0xFF,0xFF,0xFF,0xFF,0xFF,0xFF,0xFD,0xFF,0xFF,0xFF,0xFF,0xFF,0x7F
        FF FF FF FD FF FF
        FF FF FF 7F
   04F0 FF FF FF FF FD FF   961 	.byte	0xFF,0xFF,0xFF,0xFF,0xFD,0xFF,0xFF,0xFE,0xFF,0xFF,0xFF,0x7F,0xFF,0xFF,0xFF,0xFF
        FF FE FF FF FF 7F
        FF FF FF FF
   0500 FF FF FF FF FD FF   962 	.byte	0xFF,0xFF,0xFF,0xFF,0xFD,0xFF,0xFF,0xFB,0xAF,0x77,0x27,0x8F,0xDF,0x8F,0x27,0x8F
        FF FB AF 77 27 8F
        DF 8F 27 8F
                            963 
                            964 	; Tile 0x10
   0510 FF FF FF FE FF FF   965 	.byte	0xFF,0xFF,0xFF,0xFE,0xFF,0xFF,0xFF,0xFF,0xFF,0xFF,0xFF,0xFF,0xFF,0xFF,0xFF,0xFF
        FF FF FF FF FF FF
        FF FF FF FF
   0520 FF FB FF F7 EF FF   966 	.byte	0xFF,0xFB,0xFF,0xF7,0xEF,0xFF,0xDF,0xFF,0xFF,0xFF,0xFF,0xFF,0xFF,0xFF,0xFF,0xFF
        DF FF FF FF FF FF
        FF FF FF FF
   0530 FF FF FF FF FF FF   967 	.byte	0xFF,0xFF,0xFF,0xFF,0xFF,0xFF,0x7F,0xFF,0xFF,0xFB,0xFF,0xFF,0xFF,0xFF,0xFF,0xFF
        7F FF FF FB FF FF
        FF FF FF FF
   0540 FF BF FF DF EF FF   968 	.byte	0xFF,0xBF,0xFF,0xDF,0xEF,0xFF,0xF7,0xFF,0xFF,0xFF,0xFF,0xFF,0xFF,0xFF,0xFF,0xFF
        F7 FF FF FF FF FF
        FF FF FF FF
   0550 FF FF FF FF FF FF   969 	.byte	0xFF,0xFF,0xFF,0xFF,0xFF,0xFF,0xFF,0xFF,0xFF,0xFD,0xFF,0xFF,0xFF,0xFF,0xFF,0xFF
        FF FF FF FD FF FF
        FF FF FF FF
   0560 FF FF FF FE FD FF   970 	.byte	0xFF,0xFF,0xFF,0xFE,0xFD,0xFF,0xFF,0xFF,0xFF,0xFF,0xFF,0xFF,0xFF,0xFF,0xFF,0xFF
        FF FF FF FF FF FF
        FF FF FF FF
   0570 AF 77 FF FB FD FF   971 	.byte	0xAF,0x77,0xFF,0xFB,0xFD,0xFF,0xFF,0xFF,0xFF,0xFF,0xFF,0xFF,0xFF,0xFF,0xFF,0xFF
        FF FF FF FF FF FF
        FF FF FF FF
   0580 FF FF FF FD FF FF   972 	.byte	0xFF,0xFF,0xFF,0xFD,0xFF,0xFF,0xFF,0xFF,0xFF,0xFF,0xFF,0xFF,0xFF,0xFF,0xFB,0xFF
        FF FF FF FF FF FF
        FF FF FB FF
                            973 
                            974 	; Tile 0x18
   0590 FF FF FF FF FE FF   975 	.byte	0xFF,0xFF,0xFF,0xFF,0xFE,0xFF,0xFF,0xFF,0xFF,0xFF,0xFF,0xFF,0xFF,0x7F,0xFF,0xFF
        FF FF FF FF FF FF
        FF 7F FF FF
   05A0 FF FF FF FF FF FF   976 	.byte	0xFF,0xFF,0xFF,0xFF,0xFF,0xFF,0xFF,0xFF,0xFF,0xFF,0xF7,0xFF,0xFF,0xFF,0xFF,0xFF
        FF FF FF FF F7 FF
        FF FF FF FF
   05B0 FF FF FF FF FF FB   977 	.byte	0xFF,0xFF,0xFF,0xFF,0xFF,0xFB,0xFF,0xFF,0xFF,0xFF,0xFF,0xFF,0xFF,0xFF,0xFE,0xFF
        FF FF FF FF FF FF
        FF FF FE FF
   05C0 FF FF FF FF FF FF   978 	.byte	0xFF,0xFF,0xFF,0xFF,0xFF,0xFF,0xFF,0xFF,0xFF,0xFF,0xFE,0xFF,0x7D,0xFE,0x7C,0x39
        FF FF FF FF FE FF
        7D FE 7C 39
   05D0 FF FF F7 FF EF FF   979 	.byte	0xFF,0xFF,0xF7,0xFF,0xEF,0xFF,0xFF,0xDF,0xFF,0xBF,0xFF,0x7F,0x7F,0xFF,0xFF,0xFF
        FF DF FF BF FF 7F
        7F FF FF FF
   05E0 FF FF FF FF FF FF   980 	.byte	0xFF,0xFF,0xFF,0xFF,0xFF,0xFF,0xBF,0xFF,0xFF,0xFF,0xFF,0xFF,0xFD,0xFF,0xFF,0xFF
        BF FF FF FF FF FF
        FD FF FF FF
   05F0 FF FF FF FF FF EF   981 	.byte	0xFF,0xFF,0xFF,0xFF,0xFF,0xEF,0xFF,0xFF,0xFF,0xFF,0xFF,0xFF,0xFF,0xFF,0xFF,0xFF
        FF FF FF FF FF FF
        FF FF FF FF
   0600 FF FF FF FF FF FF   982 	.byte	0xFF,0xFF,0xFF,0xFF,0xFF,0xFF,0xFF,0xFF,0xFF,0xFF,0xFF,0xFF,0xFF,0xFF,0x7F,0xFD
        FF FF FF FF FF FF
        FF FF 7F FD
                            983 
                            984 	; Tile 0x20
   0610 FF FF DF FF EF FF   985 	.byte	0xFF,0xFF,0xDF,0xFF,0xEF,0xFF,0xFF,0xF7,0xFF,0xFB,0xFE,0xFD,0xFD,0xFE,0xFE,0xFF
        FF F7 FF FB FE FD
        FD FE FE FF
   0620 AB 11 C7 83 83 C7   986 	.byte	0xAB,0x11,0xC7,0x83,0x83,0xC7,0xC7,0x83,0xAB,0x11,0x7C,0x39,0x7D,0xFE,0xFE,0xFF
        C7 83 AB 11 7C 39
        7D FE FE FF
   0630 FF FF FF FF FB DF   987 	.byte	0xFF,0xFF,0xFF,0xFF,0xFB,0xDF,0xFF,0xFF,0xFF,0xFF,0xFF,0xFF,0x7F,0xFF,0xFF,0x7F
        FF FF FF FF FF FF
        7F FF FF 7F
   0640 FB FF FF FD FE FE   988 	.byte	0xFB,0xFF,0xFF,0xFD,0xFE,0xFE,0xFE,0xFF,0xFE,0xFE,0xFF,0xFD,0xFB,0xFF,0xFF,0xFF
        FE FF FE FE FF FD
        FB FF FF FF
   0650 EF FF FF DF 3F BF   989 	.byte	0xEF,0xFF,0xFF,0xDF,0x3F,0xBF,0x3F,0x7F,0x3F,0xBF,0xFF,0xDF,0xEF,0xFF,0xFF,0xFF
        3F 7F 3F BF FF DF
        EF FF FF FF
   0660 FF FF FF FF FF FF   990 	.byte	0xFF,0xFF,0xFF,0xFF,0xFF,0xFF,0xFF,0xFF,0xFF,0xFF,0xEF,0xFB,0xFF,0xFF,0xFF,0xFF
        FF FF FF FF EF FB
        FF FF FF FF
   0670 FF FF FF FF FF FF   991 	.byte	0xFF,0xFF,0xFF,0xFF,0xFF,0xFF,0xFF,0xFF,0xFF,0xFF,0xFE,0xFF,0xFD,0xFE,0xFE,0xFD
        FF FF FF FF FE FF
        FD FE FE FD
   0680 FF FF FF FF FF FF   992 	.byte	0xFF,0xFF,0xFF,0xFF,0xFF,0xFF,0xFF,0xFF,0xFF,0xFF,0xFF,0xFF,0xFF,0xFB,0xFF,0xFF
        FF FF FF FF FF FF
        FF FB FF FF
                            993 
                            994 	; Tile 0x28
   0690 F7 FF FB FF FF FF   995 	.byte	0xF7,0xFF,0xFB,0xFF,0xFF,0xFF,0xFF,0xFF,0xFF,0xFF,0xFF,0xFF,0xFF,0xFF,0xFF,0xFF
        FF FF FF FF FF FF
        FF FF FF FF
   06A0 FF FF FF FF FF BF   996 	.byte	0xFF,0xFF,0xFF,0xFF,0xFF,0xBF,0xFF,0xFF,0xFF,0xFF,0xFF,0xFF,0xFF,0xFF,0xFF,0xFF
        FF FF FF FF FF FF
        FF FF FF FF
   06B0 FF FF FF FF FF FF   997 	.byte	0xFF,0xFF,0xFF,0xFF,0xFF,0xFF,0xFF,0xFF,0xFF,0xFE,0xFE,0xFF,0xFF,0xFF,0xFF,0xFF
        FF FF FF FE FE FF
        FF FF FF FF
   06C0 FF FF FF FF FF FF   998 	.byte	0xFF,0xFF,0xFF,0xFF,0xFF,0xFF,0xFF,0xFD,0xFF,0xFF,0xFF,0xFF,0xFF,0xFF,0xFF,0xFF
        FF FD FF FF FF FF
        FF FF FF FF
   06D0 FF FF FF FF 7F FF   999 	.byte	0xFF,0xFF,0xFF,0xFF,0x7F,0xFF,0xFF,0xFF,0xFF,0xFF,0xFF,0xFF,0xFF,0xFF,0xFF,0xFF
        FF FF FF FF FF FF
        FF FF FF FF
                           1000 
   06E0                    1001 .endtp3:
                           1002 
                           1003 	; Image size: 0x40 x 0x40
                           1004 	; Number of tiles (total - unique): 0x40 - 0x2D
                           1005 
   06E0                    1006 .bkg_tiles:
                           1007 
   06E0 00 01 02 03 FC FC  1008 	.byte	0x00,0x01,0x02,0x03,0xFC,0xFC,0x04,0xFC
        04 FC
   06E8 00 01 02 03 FC FC  1009 	.byte	0x00,0x01,0x02,0x03,0xFC,0xFC,0x04,0xFC
        04 FC
   06F0 00 01 02 03 FC FC  1010 	.byte	0x00,0x01,0x02,0x03,0xFC,0xFC,0x04,0xFC
        04 FC
   06F8 00 01 02 03 FC FC  1011 	.byte	0x00,0x01,0x02,0x03,0xFC,0xFC,0x04,0xFC
        04 FC
                           1012 
   0700 FC 05 06 FC 07 08  1013 	.byte	0xFC,0x05,0x06,0xFC,0x07,0x08,0x09,0x0A
        09 0A
   0708 FC 05 06 FC 07 08  1014 	.byte	0xFC,0x05,0x06,0xFC,0x07,0x08,0x09,0x0A
        09 0A
   0710 FC 05 06 FC 07 08  1015 	.byte	0xFC,0x05,0x06,0xFC,0x07,0x08,0x09,0x0A
        09 0A
   0718 FC 05 06 FC 07 08  1016 	.byte	0xFC,0x05,0x06,0xFC,0x07,0x08,0x09,0x0A
        09 0A
                           1017 
   0720 FC FC FC 02 0B 0C  1018 	.byte	0xFC,0xFC,0xFC,0x02,0x0B,0x0C,0x0D,0xFC
        0D FC
   0728 FC FC FC 02 0B 0C  1019 	.byte	0xFC,0xFC,0xFC,0x02,0x0B,0x0C,0x0D,0xFC
        0D FC
   0730 FC FC FC 02 0B 0C  1020 	.byte	0xFC,0xFC,0xFC,0x02,0x0B,0x0C,0x0D,0xFC
        0D FC
   0738 FC FC FC 02 0B 0C  1021 	.byte	0xFC,0xFC,0xFC,0x02,0x0B,0x0C,0x0D,0xFC
        0D FC
                           1022 
   0740 0E 0F 10 FC 11 12  1023 	.byte	0x0E,0x0F,0x10,0xFC,0x11,0x12,0x13,0x14
        13 14
   0748 0E 0F 10 FC 11 12  1024 	.byte	0x0E,0x0F,0x10,0xFC,0x11,0x12,0x13,0x14
        13 14
   0750 0E 0F 10 FC 11 12  1025 	.byte	0x0E,0x0F,0x10,0xFC,0x11,0x12,0x13,0x14
        13 14
   0758 0E 0F 10 FC 11 12  1026 	.byte	0x0E,0x0F,0x10,0xFC,0x11,0x12,0x13,0x14
        13 14
                           1027 
   0760 15 16 17 FC 18 19  1028 	.byte	0x15,0x16,0x17,0xFC,0x18,0x19,0x1A,0xFC
        1A FC
   0768 15 16 17 FC 18 19  1029 	.byte	0x15,0x16,0x17,0xFC,0x18,0x19,0x1A,0xFC
        1A FC
   0770 15 16 17 FC 18 19  1030 	.byte	0x15,0x16,0x17,0xFC,0x18,0x19,0x1A,0xFC
        1A FC
   0778 15 16 17 FC 18 19  1031 	.byte	0x15,0x16,0x17,0xFC,0x18,0x19,0x1A,0xFC
        1A FC
                           1032 
   0780 1B 1C 1D FC FC 1E  1033 	.byte	0x1B,0x1C,0x1D,0xFC,0xFC,0x1E,0x1F,0x20
        1F 20
   0788 1B 1C 1D FC FC 1E  1034 	.byte	0x1B,0x1C,0x1D,0xFC,0xFC,0x1E,0x1F,0x20
        1F 20
   0790 1B 1C 1D FC FC 1E  1035 	.byte	0x1B,0x1C,0x1D,0xFC,0xFC,0x1E,0x1F,0x20
        1F 20
   0798 1B 1C 1D FC FC 1E  1036 	.byte	0x1B,0x1C,0x1D,0xFC,0xFC,0x1E,0x1F,0x20
        1F 20
                           1037 
   07A0 21 22 FC 23 24 25  1038 	.byte	0x21,0x22,0xFC,0x23,0x24,0x25,0xFC,0x26
        FC 26
   07A8 21 22 FC 23 24 25  1039 	.byte	0x21,0x22,0xFC,0x23,0x24,0x25,0xFC,0x26
        FC 26
   07B0 21 22 FC 23 24 25  1040 	.byte	0x21,0x22,0xFC,0x23,0x24,0x25,0xFC,0x26
        FC 26
   07B8 21 22 FC 23 24 25  1041 	.byte	0x21,0x22,0xFC,0x23,0x24,0x25,0xFC,0x26
        FC 26
                           1042 
   07C0 27 13 28 29 2A 2B  1043 	.byte	0x27,0x13,0x28,0x29,0x2A,0x2B,0x2C,0x11
        2C 11
   07C8 27 13 28 29 2A 2B  1044 	.byte	0x27,0x13,0x28,0x29,0x2A,0x2B,0x2C,0x11
        2C 11
   07D0 27 13 28 29 2A 2B  1045 	.byte	0x27,0x13,0x28,0x29,0x2A,0x2B,0x2C,0x11
        2C 11
   07D8 27 13 28 29 2A 2B  1046 	.byte	0x27,0x13,0x28,0x29,0x2A,0x2B,0x2C,0x11
        2C 11
                           1047 
   07E0 00 01 02 03 FC FC  1048 	.byte	0x00,0x01,0x02,0x03,0xFC,0xFC,0x04,0xFC
        04 FC
   07E8 00 01 02 03 FC FC  1049 	.byte	0x00,0x01,0x02,0x03,0xFC,0xFC,0x04,0xFC
        04 FC
   07F0 00 01 02 03 FC FC  1050 	.byte	0x00,0x01,0x02,0x03,0xFC,0xFC,0x04,0xFC
        04 FC
   07F8 00 01 02 03 FC FC  1051 	.byte	0x00,0x01,0x02,0x03,0xFC,0xFC,0x04,0xFC
        04 FC
                           1052 
   0800 FC 05 06 FC 07 08  1053 	.byte	0xFC,0x05,0x06,0xFC,0x07,0x08,0x09,0x0A
        09 0A
   0808 FC 05 06 FC 07 08  1054 	.byte	0xFC,0x05,0x06,0xFC,0x07,0x08,0x09,0x0A
        09 0A
   0810 FC 05 06 FC 07 08  1055 	.byte	0xFC,0x05,0x06,0xFC,0x07,0x08,0x09,0x0A
        09 0A
   0818 FC 05 06 FC 07 08  1056 	.byte	0xFC,0x05,0x06,0xFC,0x07,0x08,0x09,0x0A
        09 0A
                           1057 
   0820 FC FC FC 02 0B 0C  1058 	.byte	0xFC,0xFC,0xFC,0x02,0x0B,0x0C,0x0D,0xFC
        0D FC
   0828 FC FC FC 02 0B 0C  1059 	.byte	0xFC,0xFC,0xFC,0x02,0x0B,0x0C,0x0D,0xFC
        0D FC
   0830 FC FC FC 02 0B 0C  1060 	.byte	0xFC,0xFC,0xFC,0x02,0x0B,0x0C,0x0D,0xFC
        0D FC
   0838 FC FC FC 02 0B 0C  1061 	.byte	0xFC,0xFC,0xFC,0x02,0x0B,0x0C,0x0D,0xFC
        0D FC
                           1062 
   0840 0E 0F 10 FC 11 12  1063 	.byte	0x0E,0x0F,0x10,0xFC,0x11,0x12,0x13,0x14
        13 14
   0848 0E 0F 10 FC 11 12  1064 	.byte	0x0E,0x0F,0x10,0xFC,0x11,0x12,0x13,0x14
        13 14
   0850 0E 0F 10 FC 11 12  1065 	.byte	0x0E,0x0F,0x10,0xFC,0x11,0x12,0x13,0x14
        13 14
   0858 0E 0F 10 FC 11 12  1066 	.byte	0x0E,0x0F,0x10,0xFC,0x11,0x12,0x13,0x14
        13 14
                           1067 
   0860 15 16 17 FC 18 19  1068 	.byte	0x15,0x16,0x17,0xFC,0x18,0x19,0x1A,0xFC
        1A FC
   0868 15 16 17 FC 18 19  1069 	.byte	0x15,0x16,0x17,0xFC,0x18,0x19,0x1A,0xFC
        1A FC
   0870 15 16 17 FC 18 19  1070 	.byte	0x15,0x16,0x17,0xFC,0x18,0x19,0x1A,0xFC
        1A FC
   0878 15 16 17 FC 18 19  1071 	.byte	0x15,0x16,0x17,0xFC,0x18,0x19,0x1A,0xFC
        1A FC
                           1072 
   0880 1B 1C 1D FC FC 1E  1073 	.byte	0x1B,0x1C,0x1D,0xFC,0xFC,0x1E,0x1F,0x20
        1F 20
   0888 1B 1C 1D FC FC 1E  1074 	.byte	0x1B,0x1C,0x1D,0xFC,0xFC,0x1E,0x1F,0x20
        1F 20
   0890 1B 1C 1D FC FC 1E  1075 	.byte	0x1B,0x1C,0x1D,0xFC,0xFC,0x1E,0x1F,0x20
        1F 20
   0898 1B 1C 1D FC FC 1E  1076 	.byte	0x1B,0x1C,0x1D,0xFC,0xFC,0x1E,0x1F,0x20
        1F 20
                           1077 
   08A0 21 22 FC 23 24 25  1078 	.byte	0x21,0x22,0xFC,0x23,0x24,0x25,0xFC,0x26
        FC 26
   08A8 21 22 FC 23 24 25  1079 	.byte	0x21,0x22,0xFC,0x23,0x24,0x25,0xFC,0x26
        FC 26
   08B0 21 22 FC 23 24 25  1080 	.byte	0x21,0x22,0xFC,0x23,0x24,0x25,0xFC,0x26
        FC 26
   08B8 21 22 FC 23 24 25  1081 	.byte	0x21,0x22,0xFC,0x23,0x24,0x25,0xFC,0x26
        FC 26
                           1082 
   08C0 27 13 28 29 2A 2B  1083 	.byte	0x27,0x13,0x28,0x29,0x2A,0x2B,0x2C,0x11
        2C 11
   08C8 27 13 28 29 2A 2B  1084 	.byte	0x27,0x13,0x28,0x29,0x2A,0x2B,0x2C,0x11
        2C 11
   08D0 27 13 28 29 2A 2B  1085 	.byte	0x27,0x13,0x28,0x29,0x2A,0x2B,0x2C,0x11
        2C 11
   08D8 27 13 28 29 2A 2B  1086 	.byte	0x27,0x13,0x28,0x29,0x2A,0x2B,0x2C,0x11
        2C 11
                           1087 
   08E0 00 01 02 03 FC FC  1088 	.byte	0x00,0x01,0x02,0x03,0xFC,0xFC,0x04,0xFC
        04 FC
   08E8 00 01 02 03 FC FC  1089 	.byte	0x00,0x01,0x02,0x03,0xFC,0xFC,0x04,0xFC
        04 FC
   08F0 00 01 02 03 FC FC  1090 	.byte	0x00,0x01,0x02,0x03,0xFC,0xFC,0x04,0xFC
        04 FC
   08F8 00 01 02 03 FC FC  1091 	.byte	0x00,0x01,0x02,0x03,0xFC,0xFC,0x04,0xFC
        04 FC
                           1092 
   0900 FC 05 06 FC 07 08  1093 	.byte	0xFC,0x05,0x06,0xFC,0x07,0x08,0x09,0x0A
        09 0A
   0908 FC 05 06 FC 07 08  1094 	.byte	0xFC,0x05,0x06,0xFC,0x07,0x08,0x09,0x0A
        09 0A
   0910 FC 05 06 FC 07 08  1095 	.byte	0xFC,0x05,0x06,0xFC,0x07,0x08,0x09,0x0A
        09 0A
   0918 FC 05 06 FC 07 08  1096 	.byte	0xFC,0x05,0x06,0xFC,0x07,0x08,0x09,0x0A
        09 0A
                           1097 
   0920 FC FC FC 02 0B 0C  1098 	.byte	0xFC,0xFC,0xFC,0x02,0x0B,0x0C,0x0D,0xFC
        0D FC
   0928 FC FC FC 02 0B 0C  1099 	.byte	0xFC,0xFC,0xFC,0x02,0x0B,0x0C,0x0D,0xFC
        0D FC
   0930 FC FC FC 02 0B 0C  1100 	.byte	0xFC,0xFC,0xFC,0x02,0x0B,0x0C,0x0D,0xFC
        0D FC
   0938 FC FC FC 02 0B 0C  1101 	.byte	0xFC,0xFC,0xFC,0x02,0x0B,0x0C,0x0D,0xFC
        0D FC
                           1102 
   0940 0E 0F 10 FC 11 12  1103 	.byte	0x0E,0x0F,0x10,0xFC,0x11,0x12,0x13,0x14
        13 14
   0948 0E 0F 10 FC 11 12  1104 	.byte	0x0E,0x0F,0x10,0xFC,0x11,0x12,0x13,0x14
        13 14
   0950 0E 0F 10 FC 11 12  1105 	.byte	0x0E,0x0F,0x10,0xFC,0x11,0x12,0x13,0x14
        13 14
   0958 0E 0F 10 FC 11 12  1106 	.byte	0x0E,0x0F,0x10,0xFC,0x11,0x12,0x13,0x14
        13 14
                           1107 
   0960 15 16 17 FC 18 19  1108 	.byte	0x15,0x16,0x17,0xFC,0x18,0x19,0x1A,0xFC
        1A FC
   0968 15 16 17 FC 18 19  1109 	.byte	0x15,0x16,0x17,0xFC,0x18,0x19,0x1A,0xFC
        1A FC
   0970 15 16 17 FC 18 19  1110 	.byte	0x15,0x16,0x17,0xFC,0x18,0x19,0x1A,0xFC
        1A FC
   0978 15 16 17 FC 18 19  1111 	.byte	0x15,0x16,0x17,0xFC,0x18,0x19,0x1A,0xFC
        1A FC
                           1112 
   0980 1B 1C 1D FC FC 1E  1113 	.byte	0x1B,0x1C,0x1D,0xFC,0xFC,0x1E,0x1F,0x20
        1F 20
   0988 1B 1C 1D FC FC 1E  1114 	.byte	0x1B,0x1C,0x1D,0xFC,0xFC,0x1E,0x1F,0x20
        1F 20
   0990 1B 1C 1D FC FC 1E  1115 	.byte	0x1B,0x1C,0x1D,0xFC,0xFC,0x1E,0x1F,0x20
        1F 20
   0998 1B 1C 1D FC FC 1E  1116 	.byte	0x1B,0x1C,0x1D,0xFC,0xFC,0x1E,0x1F,0x20
        1F 20
                           1117 
   09A0 21 22 FC 23 24 25  1118 	.byte	0x21,0x22,0xFC,0x23,0x24,0x25,0xFC,0x26
        FC 26
   09A8 21 22 FC 23 24 25  1119 	.byte	0x21,0x22,0xFC,0x23,0x24,0x25,0xFC,0x26
        FC 26
   09B0 21 22 FC 23 24 25  1120 	.byte	0x21,0x22,0xFC,0x23,0x24,0x25,0xFC,0x26
        FC 26
   09B8 21 22 FC 23 24 25  1121 	.byte	0x21,0x22,0xFC,0x23,0x24,0x25,0xFC,0x26
        FC 26
                           1122 
   09C0 27 13 28 29 2A 2B  1123 	.byte	0x27,0x13,0x28,0x29,0x2A,0x2B,0x2C,0x11
        2C 11
   09C8 27 13 28 29 2A 2B  1124 	.byte	0x27,0x13,0x28,0x29,0x2A,0x2B,0x2C,0x11
        2C 11
   09D0 27 13 28 29 2A 2B  1125 	.byte	0x27,0x13,0x28,0x29,0x2A,0x2B,0x2C,0x11
        2C 11
   09D8 27 13 28 29 2A 2B  1126 	.byte	0x27,0x13,0x28,0x29,0x2A,0x2B,0x2C,0x11
        2C 11
                           1127 
   09E0 00 01 02 03 FC FC  1128 	.byte	0x00,0x01,0x02,0x03,0xFC,0xFC,0x04,0xFC
        04 FC
   09E8 00 01 02 03 FC FC  1129 	.byte	0x00,0x01,0x02,0x03,0xFC,0xFC,0x04,0xFC
        04 FC
   09F0 00 01 02 03 FC FC  1130 	.byte	0x00,0x01,0x02,0x03,0xFC,0xFC,0x04,0xFC
        04 FC
   09F8 00 01 02 03 FC FC  1131 	.byte	0x00,0x01,0x02,0x03,0xFC,0xFC,0x04,0xFC
        04 FC
                           1132 
   0A00 FC 05 06 FC 07 08  1133 	.byte	0xFC,0x05,0x06,0xFC,0x07,0x08,0x09,0x0A
        09 0A
   0A08 FC 05 06 FC 07 08  1134 	.byte	0xFC,0x05,0x06,0xFC,0x07,0x08,0x09,0x0A
        09 0A
   0A10 FC 05 06 FC 07 08  1135 	.byte	0xFC,0x05,0x06,0xFC,0x07,0x08,0x09,0x0A
        09 0A
   0A18 FC 05 06 FC 07 08  1136 	.byte	0xFC,0x05,0x06,0xFC,0x07,0x08,0x09,0x0A
        09 0A
                           1137 
   0A20 FC FC FC 02 0B 0C  1138 	.byte	0xFC,0xFC,0xFC,0x02,0x0B,0x0C,0x0D,0xFC
        0D FC
   0A28 FC FC FC 02 0B 0C  1139 	.byte	0xFC,0xFC,0xFC,0x02,0x0B,0x0C,0x0D,0xFC
        0D FC
   0A30 FC FC FC 02 0B 0C  1140 	.byte	0xFC,0xFC,0xFC,0x02,0x0B,0x0C,0x0D,0xFC
        0D FC
   0A38 FC FC FC 02 0B 0C  1141 	.byte	0xFC,0xFC,0xFC,0x02,0x0B,0x0C,0x0D,0xFC
        0D FC
                           1142 
   0A40 0E 0F 10 FC 11 12  1143 	.byte	0x0E,0x0F,0x10,0xFC,0x11,0x12,0x13,0x14
        13 14
   0A48 0E 0F 10 FC 11 12  1144 	.byte	0x0E,0x0F,0x10,0xFC,0x11,0x12,0x13,0x14
        13 14
   0A50 0E 0F 10 FC 11 12  1145 	.byte	0x0E,0x0F,0x10,0xFC,0x11,0x12,0x13,0x14
        13 14
   0A58 0E 0F 10 FC 11 12  1146 	.byte	0x0E,0x0F,0x10,0xFC,0x11,0x12,0x13,0x14
        13 14
                           1147 
   0A60 15 16 17 FC 18 19  1148 	.byte	0x15,0x16,0x17,0xFC,0x18,0x19,0x1A,0xFC
        1A FC
   0A68 15 16 17 FC 18 19  1149 	.byte	0x15,0x16,0x17,0xFC,0x18,0x19,0x1A,0xFC
        1A FC
   0A70 15 16 17 FC 18 19  1150 	.byte	0x15,0x16,0x17,0xFC,0x18,0x19,0x1A,0xFC
        1A FC
   0A78 15 16 17 FC 18 19  1151 	.byte	0x15,0x16,0x17,0xFC,0x18,0x19,0x1A,0xFC
        1A FC
                           1152 
   0A80 1B 1C 1D FC FC 1E  1153 	.byte	0x1B,0x1C,0x1D,0xFC,0xFC,0x1E,0x1F,0x20
        1F 20
   0A88 1B 1C 1D FC FC 1E  1154 	.byte	0x1B,0x1C,0x1D,0xFC,0xFC,0x1E,0x1F,0x20
        1F 20
   0A90 1B 1C 1D FC FC 1E  1155 	.byte	0x1B,0x1C,0x1D,0xFC,0xFC,0x1E,0x1F,0x20
        1F 20
   0A98 1B 1C 1D FC FC 1E  1156 	.byte	0x1B,0x1C,0x1D,0xFC,0xFC,0x1E,0x1F,0x20
        1F 20
                           1157 
   0AA0 21 22 FC 23 24 25  1158 	.byte	0x21,0x22,0xFC,0x23,0x24,0x25,0xFC,0x26
        FC 26
   0AA8 21 22 FC 23 24 25  1159 	.byte	0x21,0x22,0xFC,0x23,0x24,0x25,0xFC,0x26
        FC 26
   0AB0 21 22 FC 23 24 25  1160 	.byte	0x21,0x22,0xFC,0x23,0x24,0x25,0xFC,0x26
        FC 26
   0AB8 21 22 FC 23 24 25  1161 	.byte	0x21,0x22,0xFC,0x23,0x24,0x25,0xFC,0x26
        FC 26
                           1162 
   0AC0 27 13 28 29 2A 2B  1163 	.byte	0x27,0x13,0x28,0x29,0x2A,0x2B,0x2C,0x11
        2C 11
   0AC8 27 13 28 29 2A 2B  1164 	.byte	0x27,0x13,0x28,0x29,0x2A,0x2B,0x2C,0x11
        2C 11
   0AD0 27 13 28 29 2A 2B  1165 	.byte	0x27,0x13,0x28,0x29,0x2A,0x2B,0x2C,0x11
        2C 11
   0AD8 27 13 28 29 2A 2B  1166 	.byte	0x27,0x13,0x28,0x29,0x2A,0x2B,0x2C,0x11
        2C 11
                           1167 
                           1168 	; Image size: 0x10 x 0x70
                           1169 	; Number of tiles (total - unique): 0x1C - 0x1C
                           1170 
   0AE0                    1171 .earth_tiles:
                           1172 
   0AE0 00 02              1173 	.byte	0x00,0x02
   0AE2 04 06              1174 	.byte	0x04,0x06
   0AE4 08 0A              1175 	.byte	0x08,0x0A
   0AE6 0C 0E              1176 	.byte	0x0C,0x0E
   0AE8 10 12              1177 	.byte	0x10,0x12
   0AEA 14 16              1178 	.byte	0x14,0x16
   0AEC 18 1A              1179 	.byte	0x18,0x1A
                           1180 
                           1181 	; Image size: 0x80 x 0x50
                           1182 	; Number of tiles (total - unique): 0xA0 - 0x15
                           1183 
   0AEE                    1184 .frame_tiles:
                           1185 
   0AEE 80 81 FD 82 83 81  1186 	.byte	0x80,0x81,0xFD,0x82,0x83,0x81,0xFD,0x82,0x83,0x81,0xFD,0x82,0x83,0x81,0xFD,0x84
        FD 82 83 81 FD 82
        83 81 FD 84
   0AFE 85 86 87 88 89 8A  1187 	.byte	0x85,0x86,0x87,0x88,0x89,0x8A,0x87,0x88,0x89,0x8A,0x87,0x88,0x89,0x8A,0x8B,0x8C
        87 88 89 8A 87 88
        89 8A 8B 8C
   0B0E FD 8D FF FF FF FF  1188 	.byte	0xFD,0x8D,0xFF,0xFF,0xFF,0xFF,0xFF,0xFF,0xFF,0xFF,0xFF,0xFF,0xFF,0xFF,0x8E,0x8F
        FF FF FF FF FF FF
        FF FF 8E 8F
   0B1E 82 8C FF FF FF FF  1189 	.byte	0x82,0x8C,0xFF,0xFF,0xFF,0xFF,0xFF,0xFF,0xFF,0xFF,0xFF,0xFF,0xFF,0xFF,0x85,0x90
        FF FF FF FF FF FF
        FF FF 85 90
   0B2E 8E 8F FF FF FF FF  1190 	.byte	0x8E,0x8F,0xFF,0xFF,0xFF,0xFF,0xFF,0xFF,0xFF,0xFF,0xFF,0xFF,0xFF,0xFF,0xFD,0x8D
        FF FF FF FF FF FF
        FF FF FD 8D
   0B3E 85 90 FF FF FF FF  1191 	.byte	0x85,0x90,0xFF,0xFF,0xFF,0xFF,0xFF,0xFF,0xFF,0xFF,0xFF,0xFF,0xFF,0xFF,0x82,0x8C
        FF FF FF FF FF FF
        FF FF 82 8C
   0B4E FD 8D FF FF FF FF  1192 	.byte	0xFD,0x8D,0xFF,0xFF,0xFF,0xFF,0xFF,0xFF,0xFF,0xFF,0xFF,0xFF,0xFF,0xFF,0x8E,0x8F
        FF FF FF FF FF FF
        FF FF 8E 8F
   0B5E 82 8C FF FF FF FF  1193 	.byte	0x82,0x8C,0xFF,0xFF,0xFF,0xFF,0xFF,0xFF,0xFF,0xFF,0xFF,0xFF,0xFF,0xFF,0x85,0x90
        FF FF FF FF FF FF
        FF FF 85 90
   0B6E 8E 91 FD 82 83 81  1194 	.byte	0x8E,0x91,0xFD,0x82,0x83,0x81,0xFD,0x82,0x83,0x81,0xFD,0x82,0x83,0x81,0x92,0x8D
        FD 82 83 81 FD 82
        83 81 92 8D
   0B7E 93 8A 87 88 89 8A  1195 	.byte	0x93,0x8A,0x87,0x88,0x89,0x8A,0x87,0x88,0x89,0x8A,0x87,0x88,0x89,0x8A,0x87,0x94
        87 88 89 8A 87 88
        89 8A 87 94
                           1196 
                           1197 	; Image size: 0x60 x 0x30
                           1198 	; Number of tiles (total - unique): 0x48 - 0x03
                           1199 
   0B8E                    1200 .door1_tiles:
                           1201 
   0B8E 95 95 95 95 95 95  1202 	.byte	0x95,0x95,0x95,0x95,0x95,0x95,0x95,0x95,0x95,0x95,0x95,0x95
        95 95 95 95 95 95
   0B9A 96 96 96 96 96 96  1203 	.byte	0x96,0x96,0x96,0x96,0x96,0x96,0x96,0x96,0x96,0x96,0x96,0x96
        96 96 96 96 96 96
   0BA6 97 97 97 97 97 97  1204 	.byte	0x97,0x97,0x97,0x97,0x97,0x97,0x97,0x97,0x97,0x97,0x97,0x97
        97 97 97 97 97 97
   0BB2 95 95 95 95 95 95  1205 	.byte	0x95,0x95,0x95,0x95,0x95,0x95,0x95,0x95,0x95,0x95,0x95,0x95
        95 95 95 95 95 95
   0BBE 96 96 96 96 96 96  1206 	.byte	0x96,0x96,0x96,0x96,0x96,0x96,0x96,0x96,0x96,0x96,0x96,0x96
        96 96 96 96 96 96
   0BCA 97 97 97 97 97 97  1207 	.byte	0x97,0x97,0x97,0x97,0x97,0x97,0x97,0x97,0x97,0x97,0x97,0x97
        97 97 97 97 97 97
                           1208 
   0BD6 FC FC FC FC FC FC  1209 	.byte	0xFC,0xFC,0xFC,0xFC,0xFC,0xFC,0xFC,0xFC,0xFC,0xFC,0xFC,0xFC
        FC FC FC FC FC FC
   0BE2 FC FC FC FC FC FC  1210 	.byte	0xFC,0xFC,0xFC,0xFC,0xFC,0xFC,0xFC,0xFC,0xFC,0xFC,0xFC,0xFC
        FC FC FC FC FC FC
   0BEE FC FC FC FC FC FC  1211 	.byte	0xFC,0xFC,0xFC,0xFC,0xFC,0xFC,0xFC,0xFC,0xFC,0xFC,0xFC,0xFC
        FC FC FC FC FC FC
   0BFA FC FC FC FC FC FC  1212 	.byte	0xFC,0xFC,0xFC,0xFC,0xFC,0xFC,0xFC,0xFC,0xFC,0xFC,0xFC,0xFC
        FC FC FC FC FC FC
   0C06 FC FC FC FC FC FC  1213 	.byte	0xFC,0xFC,0xFC,0xFC,0xFC,0xFC,0xFC,0xFC,0xFC,0xFC,0xFC,0xFC
        FC FC FC FC FC FC
   0C12 FC FC FC FC FC FC  1214 	.byte	0xFC,0xFC,0xFC,0xFC,0xFC,0xFC,0xFC,0xFC,0xFC,0xFC,0xFC,0xFC
        FC FC FC FC FC FC
                           1215 
                           1216 	; Image size: 0x60 x 0x30
                           1217 	; Number of tiles (total - unique): 0x48 - 0x04
                           1218 
   0C1E                    1219 .door2_tiles:
                           1220 
   0C1E 98 98 98 98 98 98  1221 	.byte	0x98,0x98,0x98,0x98,0x98,0x98,0x98,0x98,0x98,0x98,0x98,0x98
        98 98 98 98 98 98
   0C2A 99 99 99 99 99 99  1222 	.byte	0x99,0x99,0x99,0x99,0x99,0x99,0x99,0x99,0x99,0x99,0x99,0x99
        99 99 99 99 99 99
   0C36 9A 9A 9A 9A 9A 9A  1223 	.byte	0x9A,0x9A,0x9A,0x9A,0x9A,0x9A,0x9A,0x9A,0x9A,0x9A,0x9A,0x9A
        9A 9A 9A 9A 9A 9A
   0C42 98 98 98 98 98 98  1224 	.byte	0x98,0x98,0x98,0x98,0x98,0x98,0x98,0x98,0x98,0x98,0x98,0x98
        98 98 98 98 98 98
   0C4E 99 99 99 99 99 99  1225 	.byte	0x99,0x99,0x99,0x99,0x99,0x99,0x99,0x99,0x99,0x99,0x99,0x99
        99 99 99 99 99 99
   0C5A 9B 9B 9B 9B 9B 9B  1226 	.byte	0x9B,0x9B,0x9B,0x9B,0x9B,0x9B,0x9B,0x9B,0x9B,0x9B,0x9B,0x9B
        9B 9B 9B 9B 9B 9B
                           1227 
   0C66 FC FC FC FC FC FC  1228 	.byte	0xFC,0xFC,0xFC,0xFC,0xFC,0xFC,0xFC,0xFC,0xFC,0xFC,0xFC,0xFC
        FC FC FC FC FC FC
   0C72 FC FC FC FC FC FC  1229 	.byte	0xFC,0xFC,0xFC,0xFC,0xFC,0xFC,0xFC,0xFC,0xFC,0xFC,0xFC,0xFC
        FC FC FC FC FC FC
   0C7E FC FC FC FC FC FC  1230 	.byte	0xFC,0xFC,0xFC,0xFC,0xFC,0xFC,0xFC,0xFC,0xFC,0xFC,0xFC,0xFC
        FC FC FC FC FC FC
   0C8A FC FC FC FC FC FC  1231 	.byte	0xFC,0xFC,0xFC,0xFC,0xFC,0xFC,0xFC,0xFC,0xFC,0xFC,0xFC,0xFC
        FC FC FC FC FC FC
   0C96 FC FC FC FC FC FC  1232 	.byte	0xFC,0xFC,0xFC,0xFC,0xFC,0xFC,0xFC,0xFC,0xFC,0xFC,0xFC,0xFC
        FC FC FC FC FC FC
                           1233 
                           1234 	; Image size: 0x60 x 0x30
                           1235 	; Number of tiles (total - unique): 0x48 - 0x04
                           1236 
   0CA2                    1237 .door3_tiles:
                           1238 
   0CA2 9C 9C 9C 9C 9C 9C  1239 	.byte	0x9C,0x9C,0x9C,0x9C,0x9C,0x9C,0x9C,0x9C,0x9C,0x9C,0x9C,0x9C
        9C 9C 9C 9C 9C 9C
   0CAE 9D 9D 9D 9D 9D 9D  1240 	.byte	0x9D,0x9D,0x9D,0x9D,0x9D,0x9D,0x9D,0x9D,0x9D,0x9D,0x9D,0x9D
        9D 9D 9D 9D 9D 9D
   0CBA 9E 9E 9E 9E 9E 9E  1241 	.byte	0x9E,0x9E,0x9E,0x9E,0x9E,0x9E,0x9E,0x9E,0x9E,0x9E,0x9E,0x9E
        9E 9E 9E 9E 9E 9E
   0CC6 9C 9C 9C 9C 9C 9C  1242 	.byte	0x9C,0x9C,0x9C,0x9C,0x9C,0x9C,0x9C,0x9C,0x9C,0x9C,0x9C,0x9C
        9C 9C 9C 9C 9C 9C
   0CD2 9D 9D 9D 9D 9D 9D  1243 	.byte	0x9D,0x9D,0x9D,0x9D,0x9D,0x9D,0x9D,0x9D,0x9D,0x9D,0x9D,0x9D
        9D 9D 9D 9D 9D 9D
   0CDE 9F 9F 9F 9F 9F 9F  1244 	.byte	0x9F,0x9F,0x9F,0x9F,0x9F,0x9F,0x9F,0x9F,0x9F,0x9F,0x9F,0x9F
        9F 9F 9F 9F 9F 9F
                           1245 
   0CEA FC FC FC FC FC FC  1246 	.byte	0xFC,0xFC,0xFC,0xFC,0xFC,0xFC,0xFC,0xFC,0xFC,0xFC,0xFC,0xFC
        FC FC FC FC FC FC
   0CF6 FC FC FC FC FC FC  1247 	.byte	0xFC,0xFC,0xFC,0xFC,0xFC,0xFC,0xFC,0xFC,0xFC,0xFC,0xFC,0xFC
        FC FC FC FC FC FC
   0D02 FC FC FC FC FC FC  1248 	.byte	0xFC,0xFC,0xFC,0xFC,0xFC,0xFC,0xFC,0xFC,0xFC,0xFC,0xFC,0xFC
        FC FC FC FC FC FC
   0D0E FC FC FC FC FC FC  1249 	.byte	0xFC,0xFC,0xFC,0xFC,0xFC,0xFC,0xFC,0xFC,0xFC,0xFC,0xFC,0xFC
        FC FC FC FC FC FC
   0D1A FC FC FC FC FC FC  1250 	.byte	0xFC,0xFC,0xFC,0xFC,0xFC,0xFC,0xFC,0xFC,0xFC,0xFC,0xFC,0xFC
        FC FC FC FC FC FC
                           1251 
                           1252 	; Image size: 0x60 x 0x30
                           1253 	; Number of tiles (total - unique): 0x48 - 0x01
                           1254 
   0D26                    1255 .door4_tiles:
                           1256 
   0D26 95 95 95 95 95 95  1257 	.byte	0x95,0x95,0x95,0x95,0x95,0x95,0x95,0x95,0x95,0x95,0x95,0x95
        95 95 95 95 95 95
   0D32 96 96 96 96 96 96  1258 	.byte	0x96,0x96,0x96,0x96,0x96,0x96,0x96,0x96,0x96,0x96,0x96,0x96
        96 96 96 96 96 96
   0D3E 97 97 97 97 97 97  1259 	.byte	0x97,0x97,0x97,0x97,0x97,0x97,0x97,0x97,0x97,0x97,0x97,0x97
        97 97 97 97 97 97
   0D4A 95 95 95 95 95 95  1260 	.byte	0x95,0x95,0x95,0x95,0x95,0x95,0x95,0x95,0x95,0x95,0x95,0x95
        95 95 95 95 95 95
   0D56 96 96 96 96 96 96  1261 	.byte	0x96,0x96,0x96,0x96,0x96,0x96,0x96,0x96,0x96,0x96,0x96,0x96
        96 96 96 96 96 96
   0D62 A0 A0 A0 A0 A0 A0  1262 	.byte	0xA0,0xA0,0xA0,0xA0,0xA0,0xA0,0xA0,0xA0,0xA0,0xA0,0xA0,0xA0
        A0 A0 A0 A0 A0 A0
                           1263 
   0D6E FC FC FC FC FC FC  1264 	.byte	0xFC,0xFC,0xFC,0xFC,0xFC,0xFC,0xFC,0xFC,0xFC,0xFC,0xFC,0xFC
        FC FC FC FC FC FC
   0D7A FC FC FC FC FC FC  1265 	.byte	0xFC,0xFC,0xFC,0xFC,0xFC,0xFC,0xFC,0xFC,0xFC,0xFC,0xFC,0xFC
        FC FC FC FC FC FC
   0D86 FC FC FC FC FC FC  1266 	.byte	0xFC,0xFC,0xFC,0xFC,0xFC,0xFC,0xFC,0xFC,0xFC,0xFC,0xFC,0xFC
        FC FC FC FC FC FC
   0D92 FC FC FC FC FC FC  1267 	.byte	0xFC,0xFC,0xFC,0xFC,0xFC,0xFC,0xFC,0xFC,0xFC,0xFC,0xFC,0xFC
        FC FC FC FC FC FC
   0D9E FC FC FC FC FC FC  1268 	.byte	0xFC,0xFC,0xFC,0xFC,0xFC,0xFC,0xFC,0xFC,0xFC,0xFC,0xFC,0xFC
        FC FC FC FC FC FC
                           1269 
   0DAA                    1270 .film:
   0DAA 8E 0B              1271 	.word	.door1_tiles+0x0C*0
   0DAC 1E 0C              1272 	.word	.door2_tiles+0x0C*0
   0DAE A2 0C              1273 	.word	.door3_tiles+0x0C*0
   0DB0 26 0D              1274 	.word	.door4_tiles+0x0C*0
   0DB2 9A 0B              1275 	.word	.door1_tiles+0x0C*1
   0DB4 2A 0C              1276 	.word	.door2_tiles+0x0C*1
   0DB6 AE 0C              1277 	.word	.door3_tiles+0x0C*1
   0DB8 32 0D              1278 	.word	.door4_tiles+0x0C*1
   0DBA A6 0B              1279 	.word	.door1_tiles+0x0C*2
   0DBC 36 0C              1280 	.word	.door2_tiles+0x0C*2
   0DBE BA 0C              1281 	.word	.door3_tiles+0x0C*2
   0DC0 3E 0D              1282 	.word	.door4_tiles+0x0C*2
   0DC2 B2 0B              1283 	.word	.door1_tiles+0x0C*3
   0DC4 42 0C              1284 	.word	.door2_tiles+0x0C*3
   0DC6 C6 0C              1285 	.word	.door3_tiles+0x0C*3
   0DC8 4A 0D              1286 	.word	.door4_tiles+0x0C*3
   0DCA BE 0B              1287 	.word	.door1_tiles+0x0C*4
   0DCC 4E 0C              1288 	.word	.door2_tiles+0x0C*4
   0DCE D2 0C              1289 	.word	.door3_tiles+0x0C*4
   0DD0 56 0D              1290 	.word	.door4_tiles+0x0C*4
   0DD2 CA 0B              1291 	.word	.door1_tiles+0x0C*5
   0DD4 5A 0C              1292 	.word	.door2_tiles+0x0C*5
   0DD6 DE 0C              1293 	.word	.door3_tiles+0x0C*5
   0DD8 62 0D              1294 	.word	.door4_tiles+0x0C*5
   0DDA                    1295 .endfilm:
   0DDA D6 0B              1296 	.word	.door1_tiles+0x0C*6
ASxxxx Assembler V01.75  (GameBoy Z80-like CPU), page 1.

Symbol Table

    .A                              =  0010 
    .B                              =  0020 
    .BANKOV                         =  0006 
    .BCPD                           =  0069 
    .BCPS                           =  0068 
    .BGP                            =  0047 
    .CLOSED                         =  0000 
    .CLOSING                        =  0003 
    .DIV                            =  0004 
    .DMA                            =  0046 
    .DOWN                           =  0008 
    .DT_IDLE                        =  0066 
    .DT_RECEIVING                   =  0055 
    .FADESTEP                       =  0010 
    .G_MODE                         =  0001 
    .HDMA1                          =  0051 
    .HDMA2                          =  0052 
    .HDMA3                          =  0053 
    .HDMA4                          =  0054 
    .HDMA5                          =  0055 
    .IE                             =  00FF 
    .IF                             =  000F 
    .IO_ERROR                       =  0004 
    .IO_IDLE                        =  0000 
    .IO_RECEIVING                   =  0002 
    .IO_SENDING                     =  0001 
    .JOY_IFLAG                      =  0010 
    .KEY1                           =  004D 
    .LCDC                           =  0040 
    .LCD_IFLAG                      =  0002 
    .LEFT                           =  0002 
    .LY                             =  0044 
    .LYC                            =  0045 
    .MAXCURSPOSX                    =  0013 
    .MAXCURSPOSY                    =  0011 
    .MAXWINX                        =  00A6 
    .MAXWINY                        =  008F 
    .MAXWNDPOSX                     =  00A6 
    .MAXWNDPOSY                     =  008F 
    .MBC1_ROM_PAGE                  =  2000 
    .MINWINX                        =  0027 
    .MINWINY                        =  0040 
    .MINWNDPOSX                     =  0007 
    .MINWNDPOSY                     =  0000 
    .MODE_TABLE                     =  01E0 
    .M_NO_INTERP                    =  0008 
    .M_NO_SCROLL                    =  0004 
    .NBDFRAMES                      =  0030 
    .NBSFRAMES                      =  0007 
    .NEAR_CALLS                     =  0000 
    .NR10                           =  0010 
    .NR11                           =  0011 
    .NR12                           =  0012 
    .NR13                           =  0013 
    .NR14                           =  0014 
    .NR21                           =  0016 
    .NR22                           =  0017 
    .NR23                           =  0018 
    .NR24                           =  0019 
    .NR30                           =  001A 
    .NR31                           =  001B 
    .NR32                           =  001C 
    .NR33                           =  001D 
    .NR34                           =  001E 
    .NR41                           =  0020 
    .NR42                           =  0021 
    .NR43                           =  0022 
    .NR44                           =  0023 
    .NR50                           =  0024 
    .NR51                           =  0025 
    .NR52                           =  0026 
    .OAM                               **** GX
    .OBP0                           =  0048 
    .OBP1                           =  0049 
    .OCPD                           =  006B 
    .OCPS                           =  006A 
    .OPENED                         =  0002 
    .OPENING                        =  0001 
    .P1                             =  0000 
    .RIGHT                          =  0001 
    .RP                             =  0056 
    .SB                             =  0001 
    .SC                             =  0002 
    .SCREENHEIGHT                   =  0090 
    .SCREENWIDTH                    =  00A0 
    .SCX                            =  0043 
    .SCY                            =  0042 
    .SELECT                         =  0040 
    .SIO_IFLAG                      =  0008 
    .STACK                             **** GX
    .START                          =  0080 
    .STARTFADE                      =  0060 
    .STAT                           =  0041 
    .SVBK                           =  0070 
    .TAC                            =  0007 
    .TIMA                           =  0005 
    .TIM_IFLAG                      =  0004 
    .TMA                            =  0006 
    .T_MODE                         =  0002 
    .T_MODE_INOUT                   =  0003 
    .T_MODE_OUT                     =  0002 
    .UP                             =  0004 
    .VBK                            =  004F 
    .VBL_IFLAG                      =  0001 
    .WINSZX                         =  0080 
    .WINSZY                         =  0050 
    .WX                             =  004B 
    .WY                             =  004A 
    .add_JOY                           **** GX
    .add_LCD                           **** GX
    .add_SIO                           **** GX
    .add_TIM                           **** GX
    .add_VBL                           **** GX
  0 .animate_sprite                    049E R
  2 .bkg_data                          0410 R
  2 .bkg_tiles                         06E0 R
  1 .bposx                             0005 R
  1 .bposy                             0007 R
  1 .bspx                              0009 R
  1 .bspy                              000B R
  0 .close_door                        0479 R
  1 .color                             0003 R
    .copy_vram                         **** GX
    .display_off                       **** GX
  0 .door                              0444 R
  2 .door1_data                        0350 R
  2 .door1_tiles                       0B8E R
  2 .door2_data                        0380 R
  2 .door2_tiles                       0C1E R
  2 .door3_data                        03C0 R
  2 .door3_tiles                       0CA2 R
  2 .door4_data                        0400 R
  2 .door4_tiles                       0D26 R
  1 .doorpos                           0002 R
  1 .doorstate                         0001 R
  2 .earth_data                        0040 R
  2 .earth_tiles                       0AE0 R
  2 .endfilm                           0DDA R
  2 .endtp0                            0040 R
  2 .endtp1                            0200 R
  2 .endtp2                            0410 R
  2 .endtp3                            06E0 R
  0 .fade                              02B8 R
  2 .film                              0DAA R
  2 .frame_data                        0200 R
  2 .frame_tiles                       0AEE R
    .init                              **** GX
    .init_btt                          **** GX
    .init_vram                         **** GX
    .init_wtt                          **** GX
    .jpad                              **** GX
    .mode                              **** GX
    .mv_sprite                         **** GX
  0 .open_door                         0452 R
  0 .place_sprite                      04D0 R
    .refresh_OAM                       **** GX
    .reset                             **** GX
  0 .scroll                            02F6 R
    .set_mode                          **** GX
    .set_sprite_prop                   **** GX
    .set_sprite_tile                   **** GX
    .set_xy_wtt                        **** GX
  1 .sframe                            0004 R
  1 .sposx                             0015 R
  1 .sposy                             0017 R
  1 .sspx                              0019 R
  1 .sspy                              001B R
  2 .std_data                          0000 R
  0 .tile_sprite                       04B4 R
  1 .time                              0000 R
  2 .tp0                               0000 R
  2 .tp1                               0040 R
  2 .tp2                               0200 R
  2 .tp3                               0410 R
    .wait_vbl_done                     **** GX
  1 .wposx                             000D R
  1 .wposy                             000F R
  1 .wspx                              0011 R
  1 .wspy                              0013 R
    __RGBDS__                       =  0000 
    __cpu                              **** GX
    __io_in                            **** GX
    __io_out                           **** GX
    __io_status                        **** GX
  0 _main                              0000 GR
    banked_call                        **** GX
    banked_ret                         **** GX

ASxxxx Assembler V01.75  (GameBoy Z80-like CPU), page 2.

Area Table

   0 _CODE                              size  4E9   flags 0
   1 _BSS                               size   1D   flags 0
   2 _LIT                               size  DDC   flags 0
