                              1 ;--------------------------------------------------------
                              2 ; File Created by SDCC : FreeWare ANSI-C Compiler
                              3 ; Version 2.2.1 Sat Mar 09 01:19:53 2019
                              4 
                              5 ;--------------------------------------------------------
                              6 	.module lcc64000
                              7 	
                              8 ;--------------------------------------------------------
                              9 ; Public variables in this module
                             10 ;--------------------------------------------------------
                             11 	.globl _main
                             12 	.globl _run
                             13 	.globl _menu
                             14 	.globl _splash
                             15 	.globl _reset_icon
                             16 	.globl _change_icon
                             17 	.globl _set_icon
                             18 	.globl _move_menu_cursor
                             19 	.globl _move_cursor
                             20 	.globl _set_cursor
                             21 	.globl _switch_data
                             22 	.globl _plot
                             23 	.globl _move_sprite
                             24 	.globl _set_sprite_prop
                             25 	.globl _set_sprite_tile
                             26 	.globl _set_sprite_data
                             27 	.globl _wait_vbl_done
                             28 	.globl _waitpadup
                             29 	.globl _joypad
                             30 	.globl _cursor_y
                             31 	.globl _cursor_x
                             32 	.globl _menu_cursor_pos
                             33 	.globl _current_cursor
                             34 	.globl _current_mode
                             35 	.globl _current_color
                             36 	.globl _current_tool
                             37 	.globl _data_buffer
                             38 	.globl _main
                             39 	.globl _run
                             40 	.globl _menu
                             41 	.globl _splash
                             42 	.globl _reset_icon
                             43 	.globl _change_icon
                             44 	.globl _set_icon
                             45 	.globl _move_menu_cursor
                             46 	.globl _move_cursor
                             47 	.globl _modes
                             48 	.globl _colors
                             49 	.globl _cursors_data
                             50 	.globl _cursors
                             51 	.globl _selected_data
                             52 	.globl _data
                             53 	.globl _icons
                             54 	.globl _set_cursor
                             55 ;--------------------------------------------------------
                             56 ; Externals used
                             57 ;--------------------------------------------------------
                             58 	.globl _IE_REG
                             59 	.globl _SVBK_REG
                             60 	.globl _OCPD_REG
                             61 	.globl _OCPS_REG
                             62 	.globl _BCPD_REG
                             63 	.globl _BCPS_REG
                             64 	.globl _RP_REG
                             65 	.globl _HDMA5_REG
                             66 	.globl _HDMA4_REG
                             67 	.globl _HDMA3_REG
                             68 	.globl _HDMA2_REG
                             69 	.globl _HDMA1_REG
                             70 	.globl _VBK_REG
                             71 	.globl _KEY1_REG
                             72 	.globl _WX_REG
                             73 	.globl _WY_REG
                             74 	.globl _OBP1_REG
                             75 	.globl _OBP0_REG
                             76 	.globl _BGP_REG
                             77 	.globl _DMA_REG
                             78 	.globl _LYC_REG
                             79 	.globl _LY_REG
                             80 	.globl _SCX_REG
                             81 	.globl _SCY_REG
                             82 	.globl _STAT_REG
                             83 	.globl _LCDC_REG
                             84 	.globl _NR52_REG
                             85 	.globl _NR51_REG
                             86 	.globl _NR50_REG
                             87 	.globl _NR44_REG
                             88 	.globl _NR43_REG
                             89 	.globl _NR42_REG
                             90 	.globl _NR41_REG
                             91 	.globl _NR34_REG
                             92 	.globl _NR33_REG
                             93 	.globl _NR32_REG
                             94 	.globl _NR31_REG
                             95 	.globl _NR30_REG
                             96 	.globl _NR24_REG
                             97 	.globl _NR23_REG
                             98 	.globl _NR22_REG
                             99 	.globl _NR21_REG
                            100 	.globl _NR14_REG
                            101 	.globl _NR13_REG
                            102 	.globl _NR12_REG
                            103 	.globl _NR11_REG
                            104 	.globl _NR10_REG
                            105 	.globl _IF_REG
                            106 	.globl _TAC_REG
                            107 	.globl _TMA_REG
                            108 	.globl _TIMA_REG
                            109 	.globl _DIV_REG
                            110 	.globl _SC_REG
                            111 	.globl _SB_REG
                            112 	.globl _P1_REG
                            113 	.globl __io_out
                            114 	.globl __io_in
                            115 	.globl __io_status
                            116 	.globl _sys_time
                            117 	.globl __cpu
                            118 ;--------------------------------------------------------
                            119 ; special function registers
                            120 ;--------------------------------------------------------
                            121 ;--------------------------------------------------------
                            122 ; special function bits 
                            123 ;--------------------------------------------------------
                            124 ;--------------------------------------------------------
                            125 ; internal ram data
                            126 ;--------------------------------------------------------
                            127 	.area _DATA
   0000                     128 _data_buffer::
   0000                     129 	.ds 768
   0300                     130 _current_tool::
   0300                     131 	.ds 1
   0301                     132 _current_color::
   0301                     133 	.ds 1
   0302                     134 _current_mode::
   0302                     135 	.ds 1
   0303                     136 _current_cursor::
   0303                     137 	.ds 1
   0304                     138 _menu_cursor_pos::
   0304                     139 	.ds 1
   0305                     140 _cursor_x::
   0305                     141 	.ds 1
   0306                     142 _cursor_y::
   0306                     143 	.ds 1
                            144 ;--------------------------------------------------------
                            145 ; overlayable items in internal ram 
                            146 ;--------------------------------------------------------
                            147 	.area _OVERLAY
                            148 ;--------------------------------------------------------
                            149 ; indirectly addressable internal ram data
                            150 ;--------------------------------------------------------
                            151 	.area _ISEG
                            152 ;--------------------------------------------------------
                            153 ; bit data
                            154 ;--------------------------------------------------------
                            155 	.area _BSEG
                            156 ;--------------------------------------------------------
                            157 ; external ram data
                            158 ;--------------------------------------------------------
                            159 	.area _XSEG
                            160 ;--------------------------------------------------------
                            161 ; global & static initialisations
                            162 ;--------------------------------------------------------
                            163 	.area _GSINIT
                            164 	.area _GSFINAL
                            165 	.area _GSINIT
                            166 ;--------------------------------------------------------
                            167 ; Home
                            168 ;--------------------------------------------------------
                            169 	.area _HOME
                            170 	.area _CODE
                            171 ;--------------------------------------------------------
                            172 ; code
                            173 ;--------------------------------------------------------
                            174 	.area _CODE
                            175 ;	paint.c 261
                            176 ; genLabel
                            177 ; genFunction
                            178 ;	---------------------------------
                            179 ; Function set_cursor
                            180 ; ---------------------------------
   0000                     181 ___set_cursor_start:
   0000                     182 _set_cursor:
   0000 C5                  183 	push	bc
   0001 E8 F1               184 	lda	sp,-15(sp)
                            185 ;	paint.c 265
                            186 ; genAssign
                            187 ; AOP_STK for _set_cursor_i_1_1
   0003 F8 0C               188 	lda	hl,12(sp)
   0005 36 00               189 	ld	(hl),#0x00
                            190 ;	paint.c 266
                            191 ; genAssign
                            192 ; AOP_STK for _set_cursor_x_1_1
   0007 23                  193 	inc	hl
   0008 23                  194 	inc	hl
   0009 36 00               195 	ld	(hl),#0x00
                            196 ; genLabel
   000B                     197 00105$:
                            198 ; genIpush
   000B 3E 05               199 	ld	a,#0x05
   000D F5                  200 	push	af
   000E 33                  201 	inc	sp
                            202 ; genIpush
                            203 ; AOP_HL for _current_cursor
   000F 21 03 03            204 	ld	hl,#_current_cursor + 0
   0012 7E                  205 	ld	a,(hl)
   0013 F5                  206 	push	af
   0014 33                  207 	inc	sp
                            208 ; genCall
   0015 CD 00 00            209 	call	__muluchar
   0018 43                  210 	ld	b,e
   0019 E8 02               211 	lda	sp,2(sp)
                            212 ; genPlus
                            213 ; AOP_STK for _set_cursor_sloc0_1_0
                            214 ;	genPlusIncr failed
   001B 11 AE 07            215 	ld	de,#_cursors + 0
   001E 68                  216 	ld	l,b
   001F 26 00               217 	ld	h,#0x00
   0021 19                  218 	add	hl,de
   0022 7D                  219 	ld	a,l
   0023 54                  220 	ld	d,h
   0024 F8 0A               221 	lda	hl,10(sp)
   0026 22                  222 	ld	(hl+),a
   0027 72                  223 	ld	(hl),d
                            224 ; genPlus
                            225 ; AOP_STK for _set_cursor_sloc0_1_0
                            226 ; genPlusIncr
   0028 2B                  227 	dec	hl
   0029 5E                  228 	ld	e,(hl)
   002A 23                  229 	inc	hl
   002B 56                  230 	ld	d,(hl)
   002C 13                  231 	inc	de
                            232 ; genPointerGet
   002D 1A                  233 	ld	a,(de)
   002E 4F                  234 	ld	c,a
                            235 ; genCmpLt
                            236 ; AOP_STK for _set_cursor_x_1_1
   002F AF                  237 	xor	a,a
   0030 F8 0E               238 	lda	hl,14(sp)
   0032 7E                  239 	ld	a,(hl)
   0033 99                  240 	sbc	a,c ; 2
   0034 D2 D8 00            241 	jp	nc,00109$
                            242 ;	paint.c 267
                            243 ; genAssign
                            244 ; AOP_STK for _set_cursor_y_1_1
   0037 2B                  245 	dec	hl
   0038 36 00               246 	ld	(hl),#0x00
                            247 ; genPlus
                            248 ; AOP_STK for _set_cursor_sloc0_1_0
                            249 ; AOP_STK for _set_cursor_sloc2_1_0
                            250 ; genPlusIncr
                            251 ;	genPlusIncr failed
   003A F8 0A               252 	lda	hl,10(sp)
   003C 5E                  253 	ld	e,(hl)
   003D 23                  254 	inc	hl
   003E 56                  255 	ld	d,(hl)
   003F 21 02 00            256 	ld	hl,#0x0002
   0042 19                  257 	add	hl,de
   0043 7D                  258 	ld	a,l
   0044 54                  259 	ld	d,h
   0045 F8 07               260 	lda	hl,7(sp)
   0047 22                  261 	ld	(hl+),a
   0048 72                  262 	ld	(hl),d
                            263 ; genLabel
   0049                     264 00101$:
                            265 ; genPointerGet
                            266 ; AOP_STK for _set_cursor_sloc2_1_0
                            267 ; AOP_STK for _set_cursor_sloc1_1_0
   0049 F8 07               268 	lda	hl,7(sp)
   004B 5E                  269 	ld	e,(hl)
   004C 23                  270 	inc	hl
   004D 56                  271 	ld	d,(hl)
   004E 1A                  272 	ld	a,(de)
   004F 23                  273 	inc	hl
   0050 77                  274 	ld	(hl),a
                            275 ; genCmpLt
                            276 ; AOP_STK for _set_cursor_y_1_1
                            277 ; AOP_STK for _set_cursor_sloc1_1_0
                            278 ; AOP_STK for _set_cursor_sloc3_1_0
   0051 AF                  279 	xor	a,a
   0052 F8 0D               280 	lda	hl,13(sp)
   0054 7E                  281 	ld	a,(hl)
   0055 F8 09               282 	lda	hl,9(sp)
   0057 9E                  283 	sbc	a,(hl) ; 2
   0058 3E 00               284 	ld	a,#0x00
   005A 17                  285 	rla
   005B F8 06               286 	lda	hl,6(sp)
   005D 77                  287 	ld	(hl),a
                            288 ; genIfx
                            289 ; AOP_STK for _set_cursor_sloc3_1_0
                            290 ; Removed redundent or a,a
   005E AF                  291 	xor	a,a
   005F B6                  292 	or	a,(hl)
   0060 CA D2 00            293 	jp	z,00107$
                            294 ;	paint.c 270
                            295 ; genPointerGet
                            296 ; AOP_STK for _set_cursor_sloc0_1_0
   0063 F8 0A               297 	lda	hl,10(sp)
   0065 5E                  298 	ld	e,(hl)
   0066 23                  299 	inc	hl
   0067 56                  300 	ld	d,(hl)
   0068 1A                  301 	ld	a,(de)
                            302 ; genPlus
                            303 ; AOP_STK for _set_cursor_i_1_1
                            304 ; AOP_STK for _set_cursor_sloc4_1_0
                            305 ;	genPlusIncr failed
   0069 23                  306 	inc	hl
   006A 86                  307 	add	a,(hl)
   006B F8 05               308 	lda	hl,5(sp)
   006D 77                  309 	ld	(hl),a
                            310 ; genLeftShift
                            311 ; AOP_STK for _set_cursor_sloc4_1_0
                            312 ; AOP_STK for _set_cursor_sloc6_1_0
   006E 7E                  313 	ld	a,(hl)
   006F CB 17               314 	rl	a
   0071 CB 17               315 	rl	a
   0073 CB 17               316 	rl	a
   0075 CB 17               317 	rl	a
   0077 E6 F0               318 	and	a,#0xF0
   0079 F8 02               319 	lda	hl,2(sp)
   007B 77                  320 	ld	(hl),a
                            321 ; genPlus
                            322 ; AOP_STK for _set_cursor_sloc6_1_0
                            323 ; AOP_STK for _set_cursor_sloc5_1_0
                            324 ;	genPlusIncr failed
   007C 11 CC 07            325 	ld	de,#_cursors_data + 0
   007F 6E                  326 	ld	l,(hl)
   0080 26 00               327 	ld	h,#0x00
   0082 19                  328 	add	hl,de
   0083 7D                  329 	ld	a,l
   0084 54                  330 	ld	d,h
   0085 F8 03               331 	lda	hl,3(sp)
   0087 22                  332 	ld	(hl+),a
   0088 72                  333 	ld	(hl),d
                            334 ; genCast
                            335 ; AOP_STK for _set_cursor_sloc5_1_0
                            336 ; AOP_STK for _set_cursor_sloc7_1_0
   0089 2B                  337 	dec	hl
   008A 7E                  338 	ld	a,(hl)
   008B F8 00               339 	lda	hl,0(sp)
   008D 77                  340 	ld	(hl),a
   008E F8 04               341 	lda	hl,4(sp)
   0090 7E                  342 	ld	a,(hl)
   0091 F8 01               343 	lda	hl,1(sp)
   0093 77                  344 	ld	(hl),a
                            345 ;	paint.c 268
                            346 ; genIpush
                            347 ; AOP_STK for _set_cursor_sloc7_1_0
   0094 2B                  348 	dec	hl
   0095 2A                  349 	ld	a,(hl+)
   0096 66                  350 	ld	h,(hl)
   0097 6F                  351 	ld	l,a
   0098 E5                  352 	push	hl
                            353 ; genIpush
   0099 3E 01               354 	ld	a,#0x01
   009B F5                  355 	push	af
   009C 33                  356 	inc	sp
                            357 ; genIpush
                            358 ; AOP_STK for _set_cursor_i_1_1
   009D F8 0F               359 	lda	hl,15(sp)
   009F 7E                  360 	ld	a,(hl)
   00A0 F5                  361 	push	af
   00A1 33                  362 	inc	sp
                            363 ; genCall
   00A2 CD 00 00            364 	call	_set_sprite_data
   00A5 E8 04               365 	lda	sp,4(sp)
                            366 ;	paint.c 271
                            367 ; genIpush
                            368 ; AOP_STK for _set_cursor_i_1_1
   00A7 F8 0C               369 	lda	hl,12(sp)
   00A9 7E                  370 	ld	a,(hl)
   00AA F5                  371 	push	af
   00AB 33                  372 	inc	sp
                            373 ; genIpush
                            374 ; AOP_STK for _set_cursor_i_1_1
   00AC 7E                  375 	ld	a,(hl)
   00AD F5                  376 	push	af
   00AE 33                  377 	inc	sp
                            378 ; genCall
   00AF CD 00 00            379 	call	_set_sprite_tile
   00B2 E8 02               380 	lda	sp,2(sp)
                            381 ;	paint.c 272
                            382 ; genIpush
   00B4 3E 10               383 	ld	a,#0x10
   00B6 F5                  384 	push	af
   00B7 33                  385 	inc	sp
                            386 ; genIpush
                            387 ; AOP_STK for _set_cursor_i_1_1
   00B8 F8 0D               388 	lda	hl,13(sp)
   00BA 7E                  389 	ld	a,(hl)
   00BB F5                  390 	push	af
   00BC 33                  391 	inc	sp
                            392 ; genCall
   00BD CD 00 00            393 	call	_set_sprite_prop
   00C0 E8 02               394 	lda	sp,2(sp)
                            395 ;	paint.c 273
                            396 ; genPlus
                            397 ; AOP_STK for _set_cursor_i_1_1
                            398 ; genPlusIncr
                            399 ;	genPlusIncr failed
   00C2 F8 0C               400 	lda	hl,12(sp)
   00C4 7E                  401 	ld	a,(hl)
   00C5 C6 01               402 	add	a,#0x01
   00C7 4F                  403 	ld	c,a
                            404 ; genAssign
                            405 ; AOP_STK for _set_cursor_i_1_1
   00C8 71                  406 	ld	(hl),c
                            407 ;	paint.c 267
                            408 ; genPlus
                            409 ; AOP_STK for _set_cursor_y_1_1
                            410 ; genPlusIncr
                            411 ;	genPlusIncr failed
   00C9 23                  412 	inc	hl
   00CA 7E                  413 	ld	a,(hl)
   00CB C6 01               414 	add	a,#0x01
   00CD 47                  415 	ld	b,a
                            416 ; genAssign
                            417 ; AOP_STK for _set_cursor_y_1_1
   00CE 70                  418 	ld	(hl),b
                            419 ; genGoto
   00CF C3 49 00            420 	jp	00101$
                            421 ; genLabel
   00D2                     422 00107$:
                            423 ;	paint.c 266
                            424 ; genPlus
                            425 ; AOP_STK for _set_cursor_x_1_1
                            426 ; genPlusIncr
   00D2 F8 0E               427 	lda	hl,14(sp)
   00D4 34                  428 	inc	(hl)
                            429 ; genGoto
   00D5 C3 0B 00            430 	jp	00105$
                            431 ; genLabel
   00D8                     432 00109$:
                            433 ;	paint.c 276
                            434 ; genCmpLt
                            435 ; AOP_STK for _set_cursor_i_1_1
   00D8 F8 0C               436 	lda	hl,12(sp)
   00DA 7E                  437 	ld	a,(hl)
   00DB FE 04               438 	cp	#0x04
   00DD D2 F6 00            439 	jp	nc,00113$
                            440 ;	paint.c 277
                            441 ; genIpush
   00E0 3E 00               442 	ld	a,#0x00
   00E2 F5                  443 	push	af
   00E3 33                  444 	inc	sp
                            445 ; genIpush
   00E4 3E 00               446 	ld	a,#0x00
   00E6 F5                  447 	push	af
   00E7 33                  448 	inc	sp
                            449 ; genIpush
                            450 ; AOP_STK for _set_cursor_i_1_1
   00E8 7E                  451 	ld	a,(hl)
   00E9 F5                  452 	push	af
   00EA 33                  453 	inc	sp
                            454 ; genCall
   00EB CD 00 00            455 	call	_move_sprite
   00EE E8 03               456 	lda	sp,3(sp)
                            457 ;	paint.c 276
                            458 ; genPlus
                            459 ; AOP_STK for _set_cursor_i_1_1
                            460 ; genPlusIncr
   00F0 F8 0C               461 	lda	hl,12(sp)
   00F2 34                  462 	inc	(hl)
                            463 ; genGoto
   00F3 C3 D8 00            464 	jp	00109$
                            465 ; genLabel
   00F6                     466 00113$:
                            467 ; genEndFunction
   00F6 E8 0F               468 	lda	sp,15(sp)
   00F8 C1                  469 	pop	bc
   00F9 C9                  470 	ret
   00FA                     471 ___set_cursor_end:
   00FA                     472 _icons:
   00FA 00                  473 	.db #0x00
   00FB 00                  474 	.db #0x00
   00FC 00                  475 	.db #0x00
   00FD 02                  476 	.db #0x02
   00FE 02                  477 	.db #0x02
   00FF 0A                  478 	.db #0x0A
   0100 02                  479 	.db #0x02
   0101 01                  480 	.db #0x01
   0102 01                  481 	.db #0x01
   0103 01                  482 	.db #0x01
   0104 04                  483 	.db #0x04
   0105 02                  484 	.db #0x02
   0106 00                  485 	.db #0x00
   0107 02                  486 	.db #0x02
   0108 02                  487 	.db #0x02
   0109 0E                  488 	.db #0x0E
   010A 03                  489 	.db #0x03
   010B 00                  490 	.db #0x00
   010C 00                  491 	.db #0x00
   010D 02                  492 	.db #0x02
   010E 08                  493 	.db #0x08
   010F 00                  494 	.db #0x00
   0110 02                  495 	.db #0x02
   0111 02                  496 	.db #0x02
   0112 02                  497 	.db #0x02
   0113 00                  498 	.db #0x00
   0114 04                  499 	.db #0x04
   0115 03                  500 	.db #0x03
   0116 03                  501 	.db #0x03
   0117 03                  502 	.db #0x03
   0118 0C                  503 	.db #0x0C
   0119 02                  504 	.db #0x02
   011A 02                  505 	.db #0x02
   011B 02                  506 	.db #0x02
   011C 02                  507 	.db #0x02
   011D 01                  508 	.db #0x01
   011E 05                  509 	.db #0x05
   011F 02                  510 	.db #0x02
   0120 02                  511 	.db #0x02
   0121 04                  512 	.db #0x04
   0122 10                  513 	.db #0x10
   0123 00                  514 	.db #0x00
   0124 04                  515 	.db #0x04
   0125 02                  516 	.db #0x02
   0126 02                  517 	.db #0x02
   0127 02                  518 	.db #0x02
   0128 06                  519 	.db #0x06
   0129 05                  520 	.db #0x05
   012A 05                  521 	.db #0x05
   012B 05                  522 	.db #0x05
   012C 14                  523 	.db #0x14
   012D 02                  524 	.db #0x02
   012E 04                  525 	.db #0x04
   012F 02                  526 	.db #0x02
   0130 02                  527 	.db #0x02
   0131 03                  528 	.db #0x03
   0132 07                  529 	.db #0x07
   0133 04                  530 	.db #0x04
   0134 04                  531 	.db #0x04
   0135 05                  532 	.db #0x05
   0136 18                  533 	.db #0x18
   0137 00                  534 	.db #0x00
   0138 06                  535 	.db #0x06
   0139 02                  536 	.db #0x02
   013A 02                  537 	.db #0x02
   013B 04                  538 	.db #0x04
   013C 08                  539 	.db #0x08
   013D 07                  540 	.db #0x07
   013E 07                  541 	.db #0x07
   013F 05                  542 	.db #0x05
   0140 1C                  543 	.db #0x1C
   0141 02                  544 	.db #0x02
   0142 06                  545 	.db #0x06
   0143 02                  546 	.db #0x02
   0144 02                  547 	.db #0x02
   0145 05                  548 	.db #0x05
   0146 09                  549 	.db #0x09
   0147 06                  550 	.db #0x06
   0148 06                  551 	.db #0x06
   0149 05                  552 	.db #0x05
   014A 20                  553 	.db #0x20
   014B 00                  554 	.db #0x00
   014C 08                  555 	.db #0x08
   014D 02                  556 	.db #0x02
   014E 02                  557 	.db #0x02
   014F 06                  558 	.db #0x06
   0150 0A                  559 	.db #0x0A
   0151 09                  560 	.db #0x09
   0152 09                  561 	.db #0x09
   0153 05                  562 	.db #0x05
   0154 24                  563 	.db #0x24
   0155 02                  564 	.db #0x02
   0156 08                  565 	.db #0x08
   0157 02                  566 	.db #0x02
   0158 02                  567 	.db #0x02
   0159 07                  568 	.db #0x07
   015A 0E                  569 	.db #0x0E
   015B 08                  570 	.db #0x08
   015C 08                  571 	.db #0x08
   015D 05                  572 	.db #0x05
   015E 28                  573 	.db #0x28
   015F 00                  574 	.db #0x00
   0160 0A                  575 	.db #0x0A
   0161 01                  576 	.db #0x01
   0162 01                  577 	.db #0x01
   0163 08                  578 	.db #0x08
   0164 0B                  579 	.db #0x0B
   0165 10                  580 	.db #0x10
   0166 0C                  581 	.db #0x0C
   0167 00                  582 	.db #0x00
   0168 29                  583 	.db #0x29
   0169 00                  584 	.db #0x00
   016A 0B                  585 	.db #0x0B
   016B 01                  586 	.db #0x01
   016C 01                  587 	.db #0x01
   016D 0A                  588 	.db #0x0A
   016E 00                  589 	.db #0x00
   016F 11                  590 	.db #0x11
   0170 0D                  591 	.db #0x0D
   0171 00                  592 	.db #0x00
   0172 2A                  593 	.db #0x2A
   0173 01                  594 	.db #0x01
   0174 0A                  595 	.db #0x0A
   0175 01                  596 	.db #0x01
   0176 01                  597 	.db #0x01
   0177 08                  598 	.db #0x08
   0178 0D                  599 	.db #0x0D
   0179 0A                  600 	.db #0x0A
   017A 0E                  601 	.db #0x0E
   017B 00                  602 	.db #0x00
   017C 2B                  603 	.db #0x2B
   017D 01                  604 	.db #0x01
   017E 0B                  605 	.db #0x0B
   017F 01                  606 	.db #0x01
   0180 01                  607 	.db #0x01
   0181 0C                  608 	.db #0x0C
   0182 00                  609 	.db #0x00
   0183 0B                  610 	.db #0x0B
   0184 0F                  611 	.db #0x0F
   0185 00                  612 	.db #0x00
   0186 2C                  613 	.db #0x2C
   0187 02                  614 	.db #0x02
   0188 0A                  615 	.db #0x0A
   0189 01                  616 	.db #0x01
   018A 01                  617 	.db #0x01
   018B 09                  618 	.db #0x09
   018C 0F                  619 	.db #0x0F
   018D 0C                  620 	.db #0x0C
   018E 10                  621 	.db #0x10
   018F 00                  622 	.db #0x00
   0190 2D                  623 	.db #0x2D
   0191 02                  624 	.db #0x02
   0192 0B                  625 	.db #0x0B
   0193 01                  626 	.db #0x01
   0194 01                  627 	.db #0x01
   0195 0E                  628 	.db #0x0E
   0196 01                  629 	.db #0x01
   0197 0D                  630 	.db #0x0D
   0198 11                  631 	.db #0x11
   0199 00                  632 	.db #0x00
   019A 2E                  633 	.db #0x2E
   019B 03                  634 	.db #0x03
   019C 0A                  635 	.db #0x0A
   019D 01                  636 	.db #0x01
   019E 01                  637 	.db #0x01
   019F 09                  638 	.db #0x09
   01A0 11                  639 	.db #0x11
   01A1 0E                  640 	.db #0x0E
   01A2 0A                  641 	.db #0x0A
   01A3 00                  642 	.db #0x00
   01A4 2F                  643 	.db #0x2F
   01A5 03                  644 	.db #0x03
   01A6 0B                  645 	.db #0x0B
   01A7 01                  646 	.db #0x01
   01A8 01                  647 	.db #0x01
   01A9 10                  648 	.db #0x10
   01AA 01                  649 	.db #0x01
   01AB 0F                  650 	.db #0x0F
   01AC 0B                  651 	.db #0x0B
   01AD 00                  652 	.db #0x00
   01AE                     653 _data:
   01AE 00                  654 	.db #0x00
   01AF 00                  655 	.db #0x00
   01B0 7F                  656 	.db #0x7F
   01B1 00                  657 	.db #0x00
   01B2 7F                  658 	.db #0x7F
   01B3 00                  659 	.db #0x00
   01B4 7F                  660 	.db #0x7F
   01B5 00                  661 	.db #0x00
   01B6 7F                  662 	.db #0x7F
   01B7 00                  663 	.db #0x00
   01B8 7F                  664 	.db #0x7F
   01B9 00                  665 	.db #0x00
   01BA 7F                  666 	.db #0x7F
   01BB 00                  667 	.db #0x00
   01BC 7F                  668 	.db #0x7F
   01BD 01                  669 	.db #0x01
   01BE 7E                  670 	.db #0x7E
   01BF 02                  671 	.db #0x02
   01C0 7D                  672 	.db #0x7D
   01C1 05                  673 	.db #0x05
   01C2 7B                  674 	.db #0x7B
   01C3 0A                  675 	.db #0x0A
   01C4 77                  676 	.db #0x77
   01C5 14                  677 	.db #0x14
   01C6 7F                  678 	.db #0x7F
   01C7 18                  679 	.db #0x18
   01C8 7F                  680 	.db #0x7F
   01C9 27                  681 	.db #0x27
   01CA 7F                  682 	.db #0x7F
   01CB 00                  683 	.db #0x00
   01CC 00                  684 	.db #0x00
   01CD 7F                  685 	.db #0x7F
   01CE 00                  686 	.db #0x00
   01CF 00                  687 	.db #0x00
   01D0 FE                  688 	.db #0xFE
   01D1 01                  689 	.db #0x01
   01D2 FE                  690 	.db #0xFE
   01D3 0D                  691 	.db #0x0D
   01D4 F6                  692 	.db #0xF6
   01D5 15                  693 	.db #0x15
   01D6 EE                  694 	.db #0xEE
   01D7 29                  695 	.db #0x29
   01D8 DE                  696 	.db #0xDE
   01D9 51                  697 	.db #0x51
   01DA BE                  698 	.db #0xBE
   01DB A1                  699 	.db #0xA1
   01DC 7E                  700 	.db #0x7E
   01DD 41                  701 	.db #0x41
   01DE FE                  702 	.db #0xFE
   01DF 81                  703 	.db #0x81
   01E0 FE                  704 	.db #0xFE
   01E1 01                  705 	.db #0x01
   01E2 FE                  706 	.db #0xFE
   01E3 01                  707 	.db #0x01
   01E4 FE                  708 	.db #0xFE
   01E5 01                  709 	.db #0x01
   01E6 FE                  710 	.db #0xFE
   01E7 01                  711 	.db #0x01
   01E8 FE                  712 	.db #0xFE
   01E9 FD                  713 	.db #0xFD
   01EA FE                  714 	.db #0xFE
   01EB 01                  715 	.db #0x01
   01EC 00                  716 	.db #0x00
   01ED FF                  717 	.db #0xFF
   01EE 00                  718 	.db #0x00
   01EF 00                  719 	.db #0x00
   01F0 7F                  720 	.db #0x7F
   01F1 00                  721 	.db #0x00
   01F2 7F                  722 	.db #0x7F
   01F3 00                  723 	.db #0x00
   01F4 7F                  724 	.db #0x7F
   01F5 00                  725 	.db #0x00
   01F6 7F                  726 	.db #0x7F
   01F7 00                  727 	.db #0x00
   01F8 7F                  728 	.db #0x7F
   01F9 00                  729 	.db #0x00
   01FA 7F                  730 	.db #0x7F
   01FB 00                  731 	.db #0x00
   01FC 7F                  732 	.db #0x7F
   01FD 01                  733 	.db #0x01
   01FE 7E                  734 	.db #0x7E
   01FF 02                  735 	.db #0x02
   0200 7D                  736 	.db #0x7D
   0201 0D                  737 	.db #0x0D
   0202 7F                  738 	.db #0x7F
   0203 1E                  739 	.db #0x1E
   0204 7F                  740 	.db #0x7F
   0205 1E                  741 	.db #0x1E
   0206 7F                  742 	.db #0x7F
   0207 1D                  743 	.db #0x1D
   0208 7F                  744 	.db #0x7F
   0209 11                  745 	.db #0x11
   020A 7F                  746 	.db #0x7F
   020B 00                  747 	.db #0x00
   020C 00                  748 	.db #0x00
   020D 7F                  749 	.db #0x7F
   020E 00                  750 	.db #0x00
   020F 00                  751 	.db #0x00
   0210 FE                  752 	.db #0xFE
   0211 01                  753 	.db #0x01
   0212 FE                  754 	.db #0xFE
   0213 0D                  755 	.db #0x0D
   0214 F6                  756 	.db #0xF6
   0215 15                  757 	.db #0x15
   0216 EE                  758 	.db #0xEE
   0217 29                  759 	.db #0x29
   0218 DE                  760 	.db #0xDE
   0219 51                  761 	.db #0x51
   021A BE                  762 	.db #0xBE
   021B A1                  763 	.db #0xA1
   021C 7E                  764 	.db #0x7E
   021D 41                  765 	.db #0x41
   021E FE                  766 	.db #0xFE
   021F 81                  767 	.db #0x81
   0220 FE                  768 	.db #0xFE
   0221 01                  769 	.db #0x01
   0222 FE                  770 	.db #0xFE
   0223 01                  771 	.db #0x01
   0224 FE                  772 	.db #0xFE
   0225 01                  773 	.db #0x01
   0226 FE                  774 	.db #0xFE
   0227 FD                  775 	.db #0xFD
   0228 FE                  776 	.db #0xFE
   0229 FD                  777 	.db #0xFD
   022A FE                  778 	.db #0xFE
   022B 01                  779 	.db #0x01
   022C 00                  780 	.db #0x00
   022D FF                  781 	.db #0xFF
   022E 00                  782 	.db #0x00
   022F 00                  783 	.db #0x00
   0230 7F                  784 	.db #0x7F
   0231 00                  785 	.db #0x00
   0232 7F                  786 	.db #0x7F
   0233 00                  787 	.db #0x00
   0234 7F                  788 	.db #0x7F
   0235 01                  789 	.db #0x01
   0236 7F                  790 	.db #0x7F
   0237 02                  791 	.db #0x02
   0238 7E                  792 	.db #0x7E
   0239 0C                  793 	.db #0x0C
   023A 7D                  794 	.db #0x7D
   023B 18                  795 	.db #0x18
   023C 7E                  796 	.db #0x7E
   023D 1D                  797 	.db #0x1D
   023E 7F                  798 	.db #0x7F
   023F 1B                  799 	.db #0x1B
   0240 7F                  800 	.db #0x7F
   0241 19                  801 	.db #0x19
   0242 7F                  802 	.db #0x7F
   0243 18                  803 	.db #0x18
   0244 7F                  804 	.db #0x7F
   0245 08                  805 	.db #0x08
   0246 7F                  806 	.db #0x7F
   0247 08                  807 	.db #0x08
   0248 7F                  808 	.db #0x7F
   0249 08                  809 	.db #0x08
   024A 7F                  810 	.db #0x7F
   024B 00                  811 	.db #0x00
   024C 00                  812 	.db #0x00
   024D 7F                  813 	.db #0x7F
   024E 00                  814 	.db #0x00
   024F 00                  815 	.db #0x00
   0250 FE                  816 	.db #0xFE
   0251 01                  817 	.db #0x01
   0252 FE                  818 	.db #0xFE
   0253 81                  819 	.db #0x81
   0254 FE                  820 	.db #0xFE
   0255 41                  821 	.db #0x41
   0256 7E                  822 	.db #0x7E
   0257 21                  823 	.db #0x21
   0258 BE                  824 	.db #0xBE
   0259 71                  825 	.db #0x71
   025A 5E                  826 	.db #0x5E
   025B E9                  827 	.db #0xE9
   025C AE                  828 	.db #0xAE
   025D C5                  829 	.db #0xC5
   025E 5E                  830 	.db #0x5E
   025F 89                  831 	.db #0x89
   0260 BE                  832 	.db #0xBE
   0261 11                  833 	.db #0x11
   0262 FE                  834 	.db #0xFE
   0263 A1                  835 	.db #0xA1
   0264 FE                  836 	.db #0xFE
   0265 41                  837 	.db #0x41
   0266 FE                  838 	.db #0xFE
   0267 01                  839 	.db #0x01
   0268 FE                  840 	.db #0xFE
   0269 01                  841 	.db #0x01
   026A FE                  842 	.db #0xFE
   026B 01                  843 	.db #0x01
   026C 00                  844 	.db #0x00
   026D FF                  845 	.db #0xFF
   026E 00                  846 	.db #0x00
   026F 00                  847 	.db #0x00
   0270 7F                  848 	.db #0x7F
   0271 00                  849 	.db #0x00
   0272 7F                  850 	.db #0x7F
   0273 00                  851 	.db #0x00
   0274 7F                  852 	.db #0x7F
   0275 00                  853 	.db #0x00
   0276 7F                  854 	.db #0x7F
   0277 00                  855 	.db #0x00
   0278 7F                  856 	.db #0x7F
   0279 01                  857 	.db #0x01
   027A 7E                  858 	.db #0x7E
   027B 02                  859 	.db #0x02
   027C 7C                  860 	.db #0x7C
   027D 04                  861 	.db #0x04
   027E 78                  862 	.db #0x78
   027F 08                  863 	.db #0x08
   0280 7F                  864 	.db #0x7F
   0281 1F                  865 	.db #0x1F
   0282 71                  866 	.db #0x71
   0283 11                  867 	.db #0x11
   0284 7F                  868 	.db #0x7F
   0285 1F                  869 	.db #0x1F
   0286 7F                  870 	.db #0x7F
   0287 00                  871 	.db #0x00
   0288 7F                  872 	.db #0x7F
   0289 00                  873 	.db #0x00
   028A 7F                  874 	.db #0x7F
   028B 00                  875 	.db #0x00
   028C 00                  876 	.db #0x00
   028D 7F                  877 	.db #0x7F
   028E 00                  878 	.db #0x00
   028F 00                  879 	.db #0x00
   0290 FE                  880 	.db #0xFE
   0291 01                  881 	.db #0x01
   0292 FE                  882 	.db #0xFE
   0293 01                  883 	.db #0x01
   0294 FE                  884 	.db #0xFE
   0295 01                  885 	.db #0x01
   0296 FE                  886 	.db #0xFE
   0297 F9                  887 	.db #0xF9
   0298 1E                  888 	.db #0x1E
   0299 19                  889 	.db #0x19
   029A 2E                  890 	.db #0x2E
   029B 29                  891 	.db #0x29
   029C 5E                  892 	.db #0x5E
   029D 51                  893 	.db #0x51
   029E BE                  894 	.db #0xBE
   029F A1                  895 	.db #0xA1
   02A0 7E                  896 	.db #0x7E
   02A1 41                  897 	.db #0x41
   02A2 FE                  898 	.db #0xFE
   02A3 81                  899 	.db #0x81
   02A4 FE                  900 	.db #0xFE
   02A5 01                  901 	.db #0x01
   02A6 FE                  902 	.db #0xFE
   02A7 01                  903 	.db #0x01
   02A8 FE                  904 	.db #0xFE
   02A9 01                  905 	.db #0x01
   02AA FE                  906 	.db #0xFE
   02AB 01                  907 	.db #0x01
   02AC 00                  908 	.db #0x00
   02AD FF                  909 	.db #0xFF
   02AE 00                  910 	.db #0x00
   02AF 00                  911 	.db #0x00
   02B0 7F                  912 	.db #0x7F
   02B1 00                  913 	.db #0x00
   02B2 7F                  914 	.db #0x7F
   02B3 20                  915 	.db #0x20
   02B4 7F                  916 	.db #0x7F
   02B5 10                  917 	.db #0x10
   02B6 7F                  918 	.db #0x7F
   02B7 08                  919 	.db #0x08
   02B8 7F                  920 	.db #0x7F
   02B9 04                  921 	.db #0x04
   02BA 7F                  922 	.db #0x7F
   02BB 02                  923 	.db #0x02
   02BC 7F                  924 	.db #0x7F
   02BD 01                  925 	.db #0x01
   02BE 7F                  926 	.db #0x7F
   02BF 00                  927 	.db #0x00
   02C0 7F                  928 	.db #0x7F
   02C1 00                  929 	.db #0x00
   02C2 7F                  930 	.db #0x7F
   02C3 00                  931 	.db #0x00
   02C4 7F                  932 	.db #0x7F
   02C5 00                  933 	.db #0x00
   02C6 7F                  934 	.db #0x7F
   02C7 00                  935 	.db #0x00
   02C8 7F                  936 	.db #0x7F
   02C9 00                  937 	.db #0x00
   02CA 7F                  938 	.db #0x7F
   02CB 00                  939 	.db #0x00
   02CC 00                  940 	.db #0x00
   02CD 7F                  941 	.db #0x7F
   02CE 00                  942 	.db #0x00
   02CF 00                  943 	.db #0x00
   02D0 FE                  944 	.db #0xFE
   02D1 01                  945 	.db #0x01
   02D2 FE                  946 	.db #0xFE
   02D3 01                  947 	.db #0x01
   02D4 FE                  948 	.db #0xFE
   02D5 01                  949 	.db #0x01
   02D6 FE                  950 	.db #0xFE
   02D7 01                  951 	.db #0x01
   02D8 FE                  952 	.db #0xFE
   02D9 01                  953 	.db #0x01
   02DA FE                  954 	.db #0xFE
   02DB 01                  955 	.db #0x01
   02DC FE                  956 	.db #0xFE
   02DD 01                  957 	.db #0x01
   02DE FE                  958 	.db #0xFE
   02DF 81                  959 	.db #0x81
   02E0 FE                  960 	.db #0xFE
   02E1 41                  961 	.db #0x41
   02E2 FE                  962 	.db #0xFE
   02E3 21                  963 	.db #0x21
   02E4 FE                  964 	.db #0xFE
   02E5 11                  965 	.db #0x11
   02E6 FE                  966 	.db #0xFE
   02E7 09                  967 	.db #0x09
   02E8 FE                  968 	.db #0xFE
   02E9 05                  969 	.db #0x05
   02EA FE                  970 	.db #0xFE
   02EB 01                  971 	.db #0x01
   02EC 00                  972 	.db #0x00
   02ED FF                  973 	.db #0xFF
   02EE 00                  974 	.db #0x00
   02EF 00                  975 	.db #0x00
   02F0 7F                  976 	.db #0x7F
   02F1 00                  977 	.db #0x00
   02F2 7F                  978 	.db #0x7F
   02F3 00                  979 	.db #0x00
   02F4 7F                  980 	.db #0x7F
   02F5 1E                  981 	.db #0x1E
   02F6 7F                  982 	.db #0x7F
   02F7 01                  983 	.db #0x01
   02F8 7F                  984 	.db #0x7F
   02F9 00                  985 	.db #0x00
   02FA 7F                  986 	.db #0x7F
   02FB 00                  987 	.db #0x00
   02FC 7F                  988 	.db #0x7F
   02FD 00                  989 	.db #0x00
   02FE 7F                  990 	.db #0x7F
   02FF 00                  991 	.db #0x00
   0300 7F                  992 	.db #0x7F
   0301 00                  993 	.db #0x00
   0302 7F                  994 	.db #0x7F
   0303 00                  995 	.db #0x00
   0304 7F                  996 	.db #0x7F
   0305 00                  997 	.db #0x00
   0306 7F                  998 	.db #0x7F
   0307 00                  999 	.db #0x00
   0308 7F                 1000 	.db #0x7F
   0309 00                 1001 	.db #0x00
   030A 7F                 1002 	.db #0x7F
   030B 00                 1003 	.db #0x00
   030C 00                 1004 	.db #0x00
   030D 7F                 1005 	.db #0x7F
   030E 00                 1006 	.db #0x00
   030F 00                 1007 	.db #0x00
   0310 FE                 1008 	.db #0xFE
   0311 01                 1009 	.db #0x01
   0312 FE                 1010 	.db #0xFE
   0313 01                 1011 	.db #0x01
   0314 FE                 1012 	.db #0xFE
   0315 01                 1013 	.db #0x01
   0316 FE                 1014 	.db #0xFE
   0317 81                 1015 	.db #0x81
   0318 FE                 1016 	.db #0xFE
   0319 41                 1017 	.db #0x41
   031A FE                 1018 	.db #0xFE
   031B 21                 1019 	.db #0x21
   031C FE                 1020 	.db #0xFE
   031D 11                 1021 	.db #0x11
   031E FE                 1022 	.db #0xFE
   031F 11                 1023 	.db #0x11
   0320 FE                 1024 	.db #0xFE
   0321 09                 1025 	.db #0x09
   0322 FE                 1026 	.db #0xFE
   0323 09                 1027 	.db #0x09
   0324 FE                 1028 	.db #0xFE
   0325 09                 1029 	.db #0x09
   0326 FE                 1030 	.db #0xFE
   0327 09                 1031 	.db #0x09
   0328 FE                 1032 	.db #0xFE
   0329 01                 1033 	.db #0x01
   032A FE                 1034 	.db #0xFE
   032B 01                 1035 	.db #0x01
   032C 00                 1036 	.db #0x00
   032D FF                 1037 	.db #0xFF
   032E 00                 1038 	.db #0x00
   032F 00                 1039 	.db #0x00
   0330 7F                 1040 	.db #0x7F
   0331 00                 1041 	.db #0x00
   0332 7F                 1042 	.db #0x7F
   0333 00                 1043 	.db #0x00
   0334 7F                 1044 	.db #0x7F
   0335 3F                 1045 	.db #0x3F
   0336 7F                 1046 	.db #0x7F
   0337 20                 1047 	.db #0x20
   0338 7F                 1048 	.db #0x7F
   0339 20                 1049 	.db #0x20
   033A 7F                 1050 	.db #0x7F
   033B 20                 1051 	.db #0x20
   033C 7F                 1052 	.db #0x7F
   033D 20                 1053 	.db #0x20
   033E 7F                 1054 	.db #0x7F
   033F 20                 1055 	.db #0x20
   0340 7F                 1056 	.db #0x7F
   0341 20                 1057 	.db #0x20
   0342 7F                 1058 	.db #0x7F
   0343 20                 1059 	.db #0x20
   0344 7F                 1060 	.db #0x7F
   0345 20                 1061 	.db #0x20
   0346 7F                 1062 	.db #0x7F
   0347 3F                 1063 	.db #0x3F
   0348 7F                 1064 	.db #0x7F
   0349 00                 1065 	.db #0x00
   034A 7F                 1066 	.db #0x7F
   034B 00                 1067 	.db #0x00
   034C 00                 1068 	.db #0x00
   034D 7F                 1069 	.db #0x7F
   034E 00                 1070 	.db #0x00
   034F 00                 1071 	.db #0x00
   0350 FE                 1072 	.db #0xFE
   0351 01                 1073 	.db #0x01
   0352 FE                 1074 	.db #0xFE
   0353 01                 1075 	.db #0x01
   0354 FE                 1076 	.db #0xFE
   0355 FD                 1077 	.db #0xFD
   0356 FE                 1078 	.db #0xFE
   0357 05                 1079 	.db #0x05
   0358 FE                 1080 	.db #0xFE
   0359 05                 1081 	.db #0x05
   035A FE                 1082 	.db #0xFE
   035B 05                 1083 	.db #0x05
   035C FE                 1084 	.db #0xFE
   035D 05                 1085 	.db #0x05
   035E FE                 1086 	.db #0xFE
   035F 05                 1087 	.db #0x05
   0360 FE                 1088 	.db #0xFE
   0361 05                 1089 	.db #0x05
   0362 FE                 1090 	.db #0xFE
   0363 05                 1091 	.db #0x05
   0364 FE                 1092 	.db #0xFE
   0365 05                 1093 	.db #0x05
   0366 FE                 1094 	.db #0xFE
   0367 FD                 1095 	.db #0xFD
   0368 FE                 1096 	.db #0xFE
   0369 01                 1097 	.db #0x01
   036A FE                 1098 	.db #0xFE
   036B 01                 1099 	.db #0x01
   036C 00                 1100 	.db #0x00
   036D FF                 1101 	.db #0xFF
   036E 00                 1102 	.db #0x00
   036F 00                 1103 	.db #0x00
   0370 7F                 1104 	.db #0x7F
   0371 00                 1105 	.db #0x00
   0372 7F                 1106 	.db #0x7F
   0373 00                 1107 	.db #0x00
   0374 7F                 1108 	.db #0x7F
   0375 03                 1109 	.db #0x03
   0376 7F                 1110 	.db #0x7F
   0377 0C                 1111 	.db #0x0C
   0378 7F                 1112 	.db #0x7F
   0379 10                 1113 	.db #0x10
   037A 7F                 1114 	.db #0x7F
   037B 20                 1115 	.db #0x20
   037C 7F                 1116 	.db #0x7F
   037D 20                 1117 	.db #0x20
   037E 7F                 1118 	.db #0x7F
   037F 20                 1119 	.db #0x20
   0380 7F                 1120 	.db #0x7F
   0381 20                 1121 	.db #0x20
   0382 7F                 1122 	.db #0x7F
   0383 10                 1123 	.db #0x10
   0384 7F                 1124 	.db #0x7F
   0385 0C                 1125 	.db #0x0C
   0386 7F                 1126 	.db #0x7F
   0387 03                 1127 	.db #0x03
   0388 7F                 1128 	.db #0x7F
   0389 00                 1129 	.db #0x00
   038A 7F                 1130 	.db #0x7F
   038B 00                 1131 	.db #0x00
   038C 00                 1132 	.db #0x00
   038D 7F                 1133 	.db #0x7F
   038E 00                 1134 	.db #0x00
   038F 00                 1135 	.db #0x00
   0390 FE                 1136 	.db #0xFE
   0391 01                 1137 	.db #0x01
   0392 FE                 1138 	.db #0xFE
   0393 01                 1139 	.db #0x01
   0394 FE                 1140 	.db #0xFE
   0395 C1                 1141 	.db #0xC1
   0396 FE                 1142 	.db #0xFE
   0397 31                 1143 	.db #0x31
   0398 FE                 1144 	.db #0xFE
   0399 09                 1145 	.db #0x09
   039A FE                 1146 	.db #0xFE
   039B 05                 1147 	.db #0x05
   039C FE                 1148 	.db #0xFE
   039D 05                 1149 	.db #0x05
   039E FE                 1150 	.db #0xFE
   039F 05                 1151 	.db #0x05
   03A0 FE                 1152 	.db #0xFE
   03A1 05                 1153 	.db #0x05
   03A2 FE                 1154 	.db #0xFE
   03A3 09                 1155 	.db #0x09
   03A4 FE                 1156 	.db #0xFE
   03A5 31                 1157 	.db #0x31
   03A6 FE                 1158 	.db #0xFE
   03A7 C1                 1159 	.db #0xC1
   03A8 FE                 1160 	.db #0xFE
   03A9 01                 1161 	.db #0x01
   03AA FE                 1162 	.db #0xFE
   03AB 01                 1163 	.db #0x01
   03AC 00                 1164 	.db #0x00
   03AD FF                 1165 	.db #0xFF
   03AE 00                 1166 	.db #0x00
   03AF 00                 1167 	.db #0x00
   03B0 7F                 1168 	.db #0x7F
   03B1 00                 1169 	.db #0x00
   03B2 7F                 1170 	.db #0x7F
   03B3 00                 1171 	.db #0x00
   03B4 7F                 1172 	.db #0x7F
   03B5 3F                 1173 	.db #0x3F
   03B6 6A                 1174 	.db #0x6A
   03B7 3F                 1175 	.db #0x3F
   03B8 75                 1176 	.db #0x75
   03B9 3F                 1177 	.db #0x3F
   03BA 6A                 1178 	.db #0x6A
   03BB 3F                 1179 	.db #0x3F
   03BC 75                 1180 	.db #0x75
   03BD 3F                 1181 	.db #0x3F
   03BE 6A                 1182 	.db #0x6A
   03BF 3F                 1183 	.db #0x3F
   03C0 75                 1184 	.db #0x75
   03C1 3F                 1185 	.db #0x3F
   03C2 6A                 1186 	.db #0x6A
   03C3 3F                 1187 	.db #0x3F
   03C4 75                 1188 	.db #0x75
   03C5 3F                 1189 	.db #0x3F
   03C6 7F                 1190 	.db #0x7F
   03C7 3F                 1191 	.db #0x3F
   03C8 7F                 1192 	.db #0x7F
   03C9 00                 1193 	.db #0x00
   03CA 7F                 1194 	.db #0x7F
   03CB 00                 1195 	.db #0x00
   03CC 00                 1196 	.db #0x00
   03CD 7F                 1197 	.db #0x7F
   03CE 00                 1198 	.db #0x00
   03CF 00                 1199 	.db #0x00
   03D0 FE                 1200 	.db #0xFE
   03D1 01                 1201 	.db #0x01
   03D2 FE                 1202 	.db #0xFE
   03D3 01                 1203 	.db #0x01
   03D4 FE                 1204 	.db #0xFE
   03D5 FD                 1205 	.db #0xFD
   03D6 AE                 1206 	.db #0xAE
   03D7 FD                 1207 	.db #0xFD
   03D8 56                 1208 	.db #0x56
   03D9 FD                 1209 	.db #0xFD
   03DA AE                 1210 	.db #0xAE
   03DB FD                 1211 	.db #0xFD
   03DC 56                 1212 	.db #0x56
   03DD FD                 1213 	.db #0xFD
   03DE AE                 1214 	.db #0xAE
   03DF FD                 1215 	.db #0xFD
   03E0 56                 1216 	.db #0x56
   03E1 FD                 1217 	.db #0xFD
   03E2 AE                 1218 	.db #0xAE
   03E3 FD                 1219 	.db #0xFD
   03E4 56                 1220 	.db #0x56
   03E5 FD                 1221 	.db #0xFD
   03E6 FE                 1222 	.db #0xFE
   03E7 FD                 1223 	.db #0xFD
   03E8 FE                 1224 	.db #0xFE
   03E9 01                 1225 	.db #0x01
   03EA FE                 1226 	.db #0xFE
   03EB 01                 1227 	.db #0x01
   03EC 00                 1228 	.db #0x00
   03ED FF                 1229 	.db #0xFF
   03EE 00                 1230 	.db #0x00
   03EF 00                 1231 	.db #0x00
   03F0 7F                 1232 	.db #0x7F
   03F1 00                 1233 	.db #0x00
   03F2 7F                 1234 	.db #0x7F
   03F3 00                 1235 	.db #0x00
   03F4 7F                 1236 	.db #0x7F
   03F5 03                 1237 	.db #0x03
   03F6 7E                 1238 	.db #0x7E
   03F7 0F                 1239 	.db #0x0F
   03F8 75                 1240 	.db #0x75
   03F9 1F                 1241 	.db #0x1F
   03FA 6A                 1242 	.db #0x6A
   03FB 3F                 1243 	.db #0x3F
   03FC 75                 1244 	.db #0x75
   03FD 3F                 1245 	.db #0x3F
   03FE 6A                 1246 	.db #0x6A
   03FF 3F                 1247 	.db #0x3F
   0400 75                 1248 	.db #0x75
   0401 3F                 1249 	.db #0x3F
   0402 7A                 1250 	.db #0x7A
   0403 1F                 1251 	.db #0x1F
   0404 7D                 1252 	.db #0x7D
   0405 0F                 1253 	.db #0x0F
   0406 7F                 1254 	.db #0x7F
   0407 03                 1255 	.db #0x03
   0408 7F                 1256 	.db #0x7F
   0409 00                 1257 	.db #0x00
   040A 7F                 1258 	.db #0x7F
   040B 00                 1259 	.db #0x00
   040C 00                 1260 	.db #0x00
   040D 7F                 1261 	.db #0x7F
   040E 00                 1262 	.db #0x00
   040F 00                 1263 	.db #0x00
   0410 FE                 1264 	.db #0xFE
   0411 01                 1265 	.db #0x01
   0412 FE                 1266 	.db #0xFE
   0413 01                 1267 	.db #0x01
   0414 FE                 1268 	.db #0xFE
   0415 C1                 1269 	.db #0xC1
   0416 BE                 1270 	.db #0xBE
   0417 F1                 1271 	.db #0xF1
   0418 5E                 1272 	.db #0x5E
   0419 F9                 1273 	.db #0xF9
   041A AE                 1274 	.db #0xAE
   041B FD                 1275 	.db #0xFD
   041C 56                 1276 	.db #0x56
   041D FD                 1277 	.db #0xFD
   041E AE                 1278 	.db #0xAE
   041F FD                 1279 	.db #0xFD
   0420 56                 1280 	.db #0x56
   0421 FD                 1281 	.db #0xFD
   0422 AE                 1282 	.db #0xAE
   0423 F9                 1283 	.db #0xF9
   0424 7E                 1284 	.db #0x7E
   0425 F1                 1285 	.db #0xF1
   0426 FE                 1286 	.db #0xFE
   0427 C1                 1287 	.db #0xC1
   0428 FE                 1288 	.db #0xFE
   0429 01                 1289 	.db #0x01
   042A FE                 1290 	.db #0xFE
   042B 01                 1291 	.db #0x01
   042C 00                 1292 	.db #0x00
   042D FF                 1293 	.db #0xFF
   042E 00                 1294 	.db #0x00
   042F 00                 1295 	.db #0x00
   0430 7F                 1296 	.db #0x7F
   0431 7F                 1297 	.db #0x7F
   0432 40                 1298 	.db #0x40
   0433 40                 1299 	.db #0x40
   0434 40                 1300 	.db #0x40
   0435 40                 1301 	.db #0x40
   0436 40                 1302 	.db #0x40
   0437 40                 1303 	.db #0x40
   0438 40                 1304 	.db #0x40
   0439 40                 1305 	.db #0x40
   043A 40                 1306 	.db #0x40
   043B 40                 1307 	.db #0x40
   043C 40                 1308 	.db #0x40
   043D 40                 1309 	.db #0x40
   043E 40                 1310 	.db #0x40
   043F 7F                 1311 	.db #0x7F
   0440 40                 1312 	.db #0x40
   0441 7F                 1313 	.db #0x7F
   0442 40                 1314 	.db #0x40
   0443 7F                 1315 	.db #0x7F
   0444 40                 1316 	.db #0x40
   0445 7F                 1317 	.db #0x7F
   0446 40                 1318 	.db #0x40
   0447 7F                 1319 	.db #0x7F
   0448 40                 1320 	.db #0x40
   0449 7F                 1321 	.db #0x7F
   044A 7F                 1322 	.db #0x7F
   044B 7F                 1323 	.db #0x7F
   044C 00                 1324 	.db #0x00
   044D 7F                 1325 	.db #0x7F
   044E 00                 1326 	.db #0x00
   044F 00                 1327 	.db #0x00
   0450 FE                 1328 	.db #0xFE
   0451 FF                 1329 	.db #0xFF
   0452 FE                 1330 	.db #0xFE
   0453 03                 1331 	.db #0x03
   0454 FE                 1332 	.db #0xFE
   0455 03                 1333 	.db #0x03
   0456 FE                 1334 	.db #0xFE
   0457 03                 1335 	.db #0x03
   0458 FE                 1336 	.db #0xFE
   0459 03                 1337 	.db #0x03
   045A FE                 1338 	.db #0xFE
   045B 03                 1339 	.db #0x03
   045C FE                 1340 	.db #0xFE
   045D 03                 1341 	.db #0x03
   045E FE                 1342 	.db #0xFE
   045F FF                 1343 	.db #0xFF
   0460 FE                 1344 	.db #0xFE
   0461 FF                 1345 	.db #0xFF
   0462 FE                 1346 	.db #0xFE
   0463 FF                 1347 	.db #0xFF
   0464 FE                 1348 	.db #0xFE
   0465 FF                 1349 	.db #0xFF
   0466 FE                 1350 	.db #0xFE
   0467 FF                 1351 	.db #0xFF
   0468 FE                 1352 	.db #0xFE
   0469 FF                 1353 	.db #0xFF
   046A FE                 1354 	.db #0xFE
   046B FF                 1355 	.db #0xFF
   046C 00                 1356 	.db #0x00
   046D FF                 1357 	.db #0xFF
   046E 00                 1358 	.db #0x00
   046F 00                 1359 	.db #0x00
   0470 7F                 1360 	.db #0x7F
   0471 00                 1361 	.db #0x00
   0472 7F                 1362 	.db #0x7F
   0473 0C                 1363 	.db #0x0C
   0474 7F                 1364 	.db #0x7F
   0475 10                 1365 	.db #0x10
   0476 7F                 1366 	.db #0x7F
   0477 08                 1367 	.db #0x08
   0478 7F                 1368 	.db #0x7F
   0479 04                 1369 	.db #0x04
   047A 7F                 1370 	.db #0x7F
   047B 18                 1371 	.db #0x18
   047C 7F                 1372 	.db #0x7F
   047D 00                 1373 	.db #0x00
   047E 7F                 1374 	.db #0x7F
   047F 00                 1375 	.db #0x00
   0480 7F                 1376 	.db #0x7F
   0481 08                 1377 	.db #0x08
   0482 7F                 1378 	.db #0x7F
   0483 14                 1379 	.db #0x14
   0484 7F                 1380 	.db #0x7F
   0485 14                 1381 	.db #0x14
   0486 7F                 1382 	.db #0x7F
   0487 14                 1383 	.db #0x14
   0488 7F                 1384 	.db #0x7F
   0489 08                 1385 	.db #0x08
   048A 7F                 1386 	.db #0x7F
   048B 00                 1387 	.db #0x00
   048C 00                 1388 	.db #0x00
   048D 7F                 1389 	.db #0x7F
   048E 00                 1390 	.db #0x00
   048F 01                 1391 	.db #0x01
   0490 FE                 1392 	.db #0xFE
   0491 01                 1393 	.db #0x01
   0492 FE                 1394 	.db #0xFE
   0493 29                 1395 	.db #0x29
   0494 FE                 1396 	.db #0xFE
   0495 29                 1397 	.db #0x29
   0496 FE                 1398 	.db #0xFE
   0497 11                 1399 	.db #0x11
   0498 FE                 1400 	.db #0xFE
   0499 29                 1401 	.db #0x29
   049A FE                 1402 	.db #0xFE
   049B 29                 1403 	.db #0x29
   049C FE                 1404 	.db #0xFE
   049D 01                 1405 	.db #0x01
   049E FE                 1406 	.db #0xFE
   049F 01                 1407 	.db #0x01
   04A0 FE                 1408 	.db #0xFE
   04A1 11                 1409 	.db #0x11
   04A2 FE                 1410 	.db #0xFE
   04A3 29                 1411 	.db #0x29
   04A4 FE                 1412 	.db #0xFE
   04A5 39                 1413 	.db #0x39
   04A6 FE                 1414 	.db #0xFE
   04A7 29                 1415 	.db #0x29
   04A8 FE                 1416 	.db #0xFE
   04A9 29                 1417 	.db #0x29
   04AA FE                 1418 	.db #0xFE
   04AB 01                 1419 	.db #0x01
   04AC 00                 1420 	.db #0x00
   04AD FF                 1421 	.db #0xFF
   04AE                    1422 _selected_data:
   04AE FF                 1423 	.db #0xFF
   04AF FF                 1424 	.db #0xFF
   04B0 80                 1425 	.db #0x80
   04B1 FF                 1426 	.db #0xFF
   04B2 80                 1427 	.db #0x80
   04B3 FF                 1428 	.db #0xFF
   04B4 80                 1429 	.db #0x80
   04B5 FF                 1430 	.db #0xFF
   04B6 80                 1431 	.db #0x80
   04B7 FF                 1432 	.db #0xFF
   04B8 80                 1433 	.db #0x80
   04B9 FF                 1434 	.db #0xFF
   04BA 80                 1435 	.db #0x80
   04BB FF                 1436 	.db #0xFF
   04BC 80                 1437 	.db #0x80
   04BD FE                 1438 	.db #0xFE
   04BE 81                 1439 	.db #0x81
   04BF FD                 1440 	.db #0xFD
   04C0 82                 1441 	.db #0x82
   04C1 FA                 1442 	.db #0xFA
   04C2 84                 1443 	.db #0x84
   04C3 F5                 1444 	.db #0xF5
   04C4 88                 1445 	.db #0x88
   04C5 EB                 1446 	.db #0xEB
   04C6 80                 1447 	.db #0x80
   04C7 E7                 1448 	.db #0xE7
   04C8 80                 1449 	.db #0x80
   04C9 D8                 1450 	.db #0xD8
   04CA 80                 1451 	.db #0x80
   04CB FF                 1452 	.db #0xFF
   04CC FF                 1453 	.db #0xFF
   04CD 80                 1454 	.db #0x80
   04CE FF                 1455 	.db #0xFF
   04CF FF                 1456 	.db #0xFF
   04D0 01                 1457 	.db #0x01
   04D1 FE                 1458 	.db #0xFE
   04D2 01                 1459 	.db #0x01
   04D3 F2                 1460 	.db #0xF2
   04D4 09                 1461 	.db #0x09
   04D5 EA                 1462 	.db #0xEA
   04D6 11                 1463 	.db #0x11
   04D7 D6                 1464 	.db #0xD6
   04D8 21                 1465 	.db #0x21
   04D9 AE                 1466 	.db #0xAE
   04DA 41                 1467 	.db #0x41
   04DB 5E                 1468 	.db #0x5E
   04DC 81                 1469 	.db #0x81
   04DD BE                 1470 	.db #0xBE
   04DE 01                 1471 	.db #0x01
   04DF 7E                 1472 	.db #0x7E
   04E0 01                 1473 	.db #0x01
   04E1 FE                 1474 	.db #0xFE
   04E2 01                 1475 	.db #0x01
   04E3 FE                 1476 	.db #0xFE
   04E4 01                 1477 	.db #0x01
   04E5 FE                 1478 	.db #0xFE
   04E6 01                 1479 	.db #0x01
   04E7 FE                 1480 	.db #0xFE
   04E8 01                 1481 	.db #0x01
   04E9 02                 1482 	.db #0x02
   04EA 01                 1483 	.db #0x01
   04EB FE                 1484 	.db #0xFE
   04EC FF                 1485 	.db #0xFF
   04ED 00                 1486 	.db #0x00
   04EE FF                 1487 	.db #0xFF
   04EF FF                 1488 	.db #0xFF
   04F0 80                 1489 	.db #0x80
   04F1 FF                 1490 	.db #0xFF
   04F2 80                 1491 	.db #0x80
   04F3 FF                 1492 	.db #0xFF
   04F4 80                 1493 	.db #0x80
   04F5 FF                 1494 	.db #0xFF
   04F6 80                 1495 	.db #0x80
   04F7 FF                 1496 	.db #0xFF
   04F8 80                 1497 	.db #0x80
   04F9 FF                 1498 	.db #0xFF
   04FA 80                 1499 	.db #0x80
   04FB FF                 1500 	.db #0xFF
   04FC 80                 1501 	.db #0x80
   04FD FE                 1502 	.db #0xFE
   04FE 81                 1503 	.db #0x81
   04FF FD                 1504 	.db #0xFD
   0500 82                 1505 	.db #0x82
   0501 F2                 1506 	.db #0xF2
   0502 80                 1507 	.db #0x80
   0503 E1                 1508 	.db #0xE1
   0504 80                 1509 	.db #0x80
   0505 E1                 1510 	.db #0xE1
   0506 80                 1511 	.db #0x80
   0507 E2                 1512 	.db #0xE2
   0508 80                 1513 	.db #0x80
   0509 EE                 1514 	.db #0xEE
   050A 80                 1515 	.db #0x80
   050B FF                 1516 	.db #0xFF
   050C FF                 1517 	.db #0xFF
   050D 80                 1518 	.db #0x80
   050E FF                 1519 	.db #0xFF
   050F FF                 1520 	.db #0xFF
   0510 01                 1521 	.db #0x01
   0511 FE                 1522 	.db #0xFE
   0512 01                 1523 	.db #0x01
   0513 F2                 1524 	.db #0xF2
   0514 09                 1525 	.db #0x09
   0515 EA                 1526 	.db #0xEA
   0516 11                 1527 	.db #0x11
   0517 D6                 1528 	.db #0xD6
   0518 21                 1529 	.db #0x21
   0519 AE                 1530 	.db #0xAE
   051A 41                 1531 	.db #0x41
   051B 5E                 1532 	.db #0x5E
   051C 81                 1533 	.db #0x81
   051D BE                 1534 	.db #0xBE
   051E 01                 1535 	.db #0x01
   051F 7E                 1536 	.db #0x7E
   0520 01                 1537 	.db #0x01
   0521 FE                 1538 	.db #0xFE
   0522 01                 1539 	.db #0x01
   0523 FE                 1540 	.db #0xFE
   0524 01                 1541 	.db #0x01
   0525 FE                 1542 	.db #0xFE
   0526 01                 1543 	.db #0x01
   0527 02                 1544 	.db #0x02
   0528 01                 1545 	.db #0x01
   0529 02                 1546 	.db #0x02
   052A 01                 1547 	.db #0x01
   052B FE                 1548 	.db #0xFE
   052C FF                 1549 	.db #0xFF
   052D 00                 1550 	.db #0x00
   052E FF                 1551 	.db #0xFF
   052F FF                 1552 	.db #0xFF
   0530 80                 1553 	.db #0x80
   0531 FF                 1554 	.db #0xFF
   0532 80                 1555 	.db #0x80
   0533 FF                 1556 	.db #0xFF
   0534 80                 1557 	.db #0x80
   0535 FE                 1558 	.db #0xFE
   0536 80                 1559 	.db #0x80
   0537 FD                 1560 	.db #0xFD
   0538 81                 1561 	.db #0x81
   0539 F3                 1562 	.db #0xF3
   053A 82                 1563 	.db #0x82
   053B E7                 1564 	.db #0xE7
   053C 81                 1565 	.db #0x81
   053D E2                 1566 	.db #0xE2
   053E 80                 1567 	.db #0x80
   053F E4                 1568 	.db #0xE4
   0540 80                 1569 	.db #0x80
   0541 E7                 1570 	.db #0xE7
   0542 80                 1571 	.db #0x80
   0543 E7                 1572 	.db #0xE7
   0544 80                 1573 	.db #0x80
   0545 F7                 1574 	.db #0xF7
   0546 80                 1575 	.db #0x80
   0547 F7                 1576 	.db #0xF7
   0548 80                 1577 	.db #0x80
   0549 F7                 1578 	.db #0xF7
   054A 80                 1579 	.db #0x80
   054B FF                 1580 	.db #0xFF
   054C FF                 1581 	.db #0xFF
   054D 80                 1582 	.db #0x80
   054E FF                 1583 	.db #0xFF
   054F FF                 1584 	.db #0xFF
   0550 01                 1585 	.db #0x01
   0551 FE                 1586 	.db #0xFE
   0552 01                 1587 	.db #0x01
   0553 7E                 1588 	.db #0x7E
   0554 01                 1589 	.db #0x01
   0555 BE                 1590 	.db #0xBE
   0556 81                 1591 	.db #0x81
   0557 DE                 1592 	.db #0xDE
   0558 41                 1593 	.db #0x41
   0559 8E                 1594 	.db #0x8E
   055A A1                 1595 	.db #0xA1
   055B 16                 1596 	.db #0x16
   055C 51                 1597 	.db #0x51
   055D 3A                 1598 	.db #0x3A
   055E A1                 1599 	.db #0xA1
   055F 76                 1600 	.db #0x76
   0560 41                 1601 	.db #0x41
   0561 EE                 1602 	.db #0xEE
   0562 01                 1603 	.db #0x01
   0563 5E                 1604 	.db #0x5E
   0564 01                 1605 	.db #0x01
   0565 BE                 1606 	.db #0xBE
   0566 01                 1607 	.db #0x01
   0567 FE                 1608 	.db #0xFE
   0568 01                 1609 	.db #0x01
   0569 FE                 1610 	.db #0xFE
   056A 01                 1611 	.db #0x01
   056B FE                 1612 	.db #0xFE
   056C FF                 1613 	.db #0xFF
   056D 00                 1614 	.db #0x00
   056E FF                 1615 	.db #0xFF
   056F FF                 1616 	.db #0xFF
   0570 80                 1617 	.db #0x80
   0571 FF                 1618 	.db #0xFF
   0572 80                 1619 	.db #0x80
   0573 FF                 1620 	.db #0xFF
   0574 80                 1621 	.db #0x80
   0575 FF                 1622 	.db #0xFF
   0576 80                 1623 	.db #0x80
   0577 FF                 1624 	.db #0xFF
   0578 80                 1625 	.db #0x80
   0579 FE                 1626 	.db #0xFE
   057A 81                 1627 	.db #0x81
   057B FD                 1628 	.db #0xFD
   057C 83                 1629 	.db #0x83
   057D FB                 1630 	.db #0xFB
   057E 87                 1631 	.db #0x87
   057F F7                 1632 	.db #0xF7
   0580 80                 1633 	.db #0x80
   0581 E0                 1634 	.db #0xE0
   0582 8E                 1635 	.db #0x8E
   0583 EE                 1636 	.db #0xEE
   0584 80                 1637 	.db #0x80
   0585 E0                 1638 	.db #0xE0
   0586 80                 1639 	.db #0x80
   0587 FF                 1640 	.db #0xFF
   0588 80                 1641 	.db #0x80
   0589 FF                 1642 	.db #0xFF
   058A 80                 1643 	.db #0x80
   058B FF                 1644 	.db #0xFF
   058C FF                 1645 	.db #0xFF
   058D 80                 1646 	.db #0x80
   058E FF                 1647 	.db #0xFF
   058F FF                 1648 	.db #0xFF
   0590 01                 1649 	.db #0x01
   0591 FE                 1650 	.db #0xFE
   0592 01                 1651 	.db #0x01
   0593 FE                 1652 	.db #0xFE
   0594 01                 1653 	.db #0x01
   0595 FE                 1654 	.db #0xFE
   0596 01                 1655 	.db #0x01
   0597 06                 1656 	.db #0x06
   0598 E1                 1657 	.db #0xE1
   0599 E6                 1658 	.db #0xE6
   059A D1                 1659 	.db #0xD1
   059B D6                 1660 	.db #0xD6
   059C A1                 1661 	.db #0xA1
   059D AE                 1662 	.db #0xAE
   059E 41                 1663 	.db #0x41
   059F 5E                 1664 	.db #0x5E
   05A0 81                 1665 	.db #0x81
   05A1 BE                 1666 	.db #0xBE
   05A2 01                 1667 	.db #0x01
   05A3 7E                 1668 	.db #0x7E
   05A4 01                 1669 	.db #0x01
   05A5 FE                 1670 	.db #0xFE
   05A6 01                 1671 	.db #0x01
   05A7 FE                 1672 	.db #0xFE
   05A8 01                 1673 	.db #0x01
   05A9 FE                 1674 	.db #0xFE
   05AA 01                 1675 	.db #0x01
   05AB FE                 1676 	.db #0xFE
   05AC FF                 1677 	.db #0xFF
   05AD 00                 1678 	.db #0x00
   05AE FF                 1679 	.db #0xFF
   05AF FF                 1680 	.db #0xFF
   05B0 80                 1681 	.db #0x80
   05B1 FF                 1682 	.db #0xFF
   05B2 80                 1683 	.db #0x80
   05B3 DF                 1684 	.db #0xDF
   05B4 80                 1685 	.db #0x80
   05B5 EF                 1686 	.db #0xEF
   05B6 80                 1687 	.db #0x80
   05B7 F7                 1688 	.db #0xF7
   05B8 80                 1689 	.db #0x80
   05B9 FB                 1690 	.db #0xFB
   05BA 80                 1691 	.db #0x80
   05BB FD                 1692 	.db #0xFD
   05BC 80                 1693 	.db #0x80
   05BD FE                 1694 	.db #0xFE
   05BE 80                 1695 	.db #0x80
   05BF FF                 1696 	.db #0xFF
   05C0 80                 1697 	.db #0x80
   05C1 FF                 1698 	.db #0xFF
   05C2 80                 1699 	.db #0x80
   05C3 FF                 1700 	.db #0xFF
   05C4 80                 1701 	.db #0x80
   05C5 FF                 1702 	.db #0xFF
   05C6 80                 1703 	.db #0x80
   05C7 FF                 1704 	.db #0xFF
   05C8 80                 1705 	.db #0x80
   05C9 FF                 1706 	.db #0xFF
   05CA 80                 1707 	.db #0x80
   05CB FF                 1708 	.db #0xFF
   05CC FF                 1709 	.db #0xFF
   05CD 80                 1710 	.db #0x80
   05CE FF                 1711 	.db #0xFF
   05CF FF                 1712 	.db #0xFF
   05D0 01                 1713 	.db #0x01
   05D1 FE                 1714 	.db #0xFE
   05D2 01                 1715 	.db #0x01
   05D3 FE                 1716 	.db #0xFE
   05D4 01                 1717 	.db #0x01
   05D5 FE                 1718 	.db #0xFE
   05D6 01                 1719 	.db #0x01
   05D7 FE                 1720 	.db #0xFE
   05D8 01                 1721 	.db #0x01
   05D9 FE                 1722 	.db #0xFE
   05DA 01                 1723 	.db #0x01
   05DB FE                 1724 	.db #0xFE
   05DC 01                 1725 	.db #0x01
   05DD FE                 1726 	.db #0xFE
   05DE 01                 1727 	.db #0x01
   05DF 7E                 1728 	.db #0x7E
   05E0 01                 1729 	.db #0x01
   05E1 BE                 1730 	.db #0xBE
   05E2 01                 1731 	.db #0x01
   05E3 DE                 1732 	.db #0xDE
   05E4 01                 1733 	.db #0x01
   05E5 EE                 1734 	.db #0xEE
   05E6 01                 1735 	.db #0x01
   05E7 F6                 1736 	.db #0xF6
   05E8 01                 1737 	.db #0x01
   05E9 FA                 1738 	.db #0xFA
   05EA 01                 1739 	.db #0x01
   05EB FE                 1740 	.db #0xFE
   05EC FF                 1741 	.db #0xFF
   05ED 00                 1742 	.db #0x00
   05EE FF                 1743 	.db #0xFF
   05EF FF                 1744 	.db #0xFF
   05F0 80                 1745 	.db #0x80
   05F1 FF                 1746 	.db #0xFF
   05F2 80                 1747 	.db #0x80
   05F3 FF                 1748 	.db #0xFF
   05F4 80                 1749 	.db #0x80
   05F5 E1                 1750 	.db #0xE1
   05F6 80                 1751 	.db #0x80
   05F7 FE                 1752 	.db #0xFE
   05F8 80                 1753 	.db #0x80
   05F9 FF                 1754 	.db #0xFF
   05FA 80                 1755 	.db #0x80
   05FB FF                 1756 	.db #0xFF
   05FC 80                 1757 	.db #0x80
   05FD FF                 1758 	.db #0xFF
   05FE 80                 1759 	.db #0x80
   05FF FF                 1760 	.db #0xFF
   0600 80                 1761 	.db #0x80
   0601 FF                 1762 	.db #0xFF
   0602 80                 1763 	.db #0x80
   0603 FF                 1764 	.db #0xFF
   0604 80                 1765 	.db #0x80
   0605 FF                 1766 	.db #0xFF
   0606 80                 1767 	.db #0x80
   0607 FF                 1768 	.db #0xFF
   0608 80                 1769 	.db #0x80
   0609 FF                 1770 	.db #0xFF
   060A 80                 1771 	.db #0x80
   060B FF                 1772 	.db #0xFF
   060C FF                 1773 	.db #0xFF
   060D 80                 1774 	.db #0x80
   060E FF                 1775 	.db #0xFF
   060F FF                 1776 	.db #0xFF
   0610 01                 1777 	.db #0x01
   0611 FE                 1778 	.db #0xFE
   0612 01                 1779 	.db #0x01
   0613 FE                 1780 	.db #0xFE
   0614 01                 1781 	.db #0x01
   0615 FE                 1782 	.db #0xFE
   0616 01                 1783 	.db #0x01
   0617 7E                 1784 	.db #0x7E
   0618 01                 1785 	.db #0x01
   0619 BE                 1786 	.db #0xBE
   061A 01                 1787 	.db #0x01
   061B DE                 1788 	.db #0xDE
   061C 01                 1789 	.db #0x01
   061D EE                 1790 	.db #0xEE
   061E 01                 1791 	.db #0x01
   061F EE                 1792 	.db #0xEE
   0620 01                 1793 	.db #0x01
   0621 F6                 1794 	.db #0xF6
   0622 01                 1795 	.db #0x01
   0623 F6                 1796 	.db #0xF6
   0624 01                 1797 	.db #0x01
   0625 F6                 1798 	.db #0xF6
   0626 01                 1799 	.db #0x01
   0627 F6                 1800 	.db #0xF6
   0628 01                 1801 	.db #0x01
   0629 FE                 1802 	.db #0xFE
   062A 01                 1803 	.db #0x01
   062B FE                 1804 	.db #0xFE
   062C FF                 1805 	.db #0xFF
   062D 00                 1806 	.db #0x00
   062E FF                 1807 	.db #0xFF
   062F FF                 1808 	.db #0xFF
   0630 80                 1809 	.db #0x80
   0631 FF                 1810 	.db #0xFF
   0632 80                 1811 	.db #0x80
   0633 FF                 1812 	.db #0xFF
   0634 80                 1813 	.db #0x80
   0635 C0                 1814 	.db #0xC0
   0636 80                 1815 	.db #0x80
   0637 DF                 1816 	.db #0xDF
   0638 80                 1817 	.db #0x80
   0639 DF                 1818 	.db #0xDF
   063A 80                 1819 	.db #0x80
   063B DF                 1820 	.db #0xDF
   063C 80                 1821 	.db #0x80
   063D DF                 1822 	.db #0xDF
   063E 80                 1823 	.db #0x80
   063F DF                 1824 	.db #0xDF
   0640 80                 1825 	.db #0x80
   0641 DF                 1826 	.db #0xDF
   0642 80                 1827 	.db #0x80
   0643 DF                 1828 	.db #0xDF
   0644 80                 1829 	.db #0x80
   0645 DF                 1830 	.db #0xDF
   0646 80                 1831 	.db #0x80
   0647 C0                 1832 	.db #0xC0
   0648 80                 1833 	.db #0x80
   0649 FF                 1834 	.db #0xFF
   064A 80                 1835 	.db #0x80
   064B FF                 1836 	.db #0xFF
   064C FF                 1837 	.db #0xFF
   064D 80                 1838 	.db #0x80
   064E FF                 1839 	.db #0xFF
   064F FF                 1840 	.db #0xFF
   0650 01                 1841 	.db #0x01
   0651 FE                 1842 	.db #0xFE
   0652 01                 1843 	.db #0x01
   0653 FE                 1844 	.db #0xFE
   0654 01                 1845 	.db #0x01
   0655 02                 1846 	.db #0x02
   0656 01                 1847 	.db #0x01
   0657 FA                 1848 	.db #0xFA
   0658 01                 1849 	.db #0x01
   0659 FA                 1850 	.db #0xFA
   065A 01                 1851 	.db #0x01
   065B FA                 1852 	.db #0xFA
   065C 01                 1853 	.db #0x01
   065D FA                 1854 	.db #0xFA
   065E 01                 1855 	.db #0x01
   065F FA                 1856 	.db #0xFA
   0660 01                 1857 	.db #0x01
   0661 FA                 1858 	.db #0xFA
   0662 01                 1859 	.db #0x01
   0663 FA                 1860 	.db #0xFA
   0664 01                 1861 	.db #0x01
   0665 FA                 1862 	.db #0xFA
   0666 01                 1863 	.db #0x01
   0667 02                 1864 	.db #0x02
   0668 01                 1865 	.db #0x01
   0669 FE                 1866 	.db #0xFE
   066A 01                 1867 	.db #0x01
   066B FE                 1868 	.db #0xFE
   066C FF                 1869 	.db #0xFF
   066D 00                 1870 	.db #0x00
   066E FF                 1871 	.db #0xFF
   066F FF                 1872 	.db #0xFF
   0670 80                 1873 	.db #0x80
   0671 FF                 1874 	.db #0xFF
   0672 80                 1875 	.db #0x80
   0673 FF                 1876 	.db #0xFF
   0674 80                 1877 	.db #0x80
   0675 FC                 1878 	.db #0xFC
   0676 80                 1879 	.db #0x80
   0677 F3                 1880 	.db #0xF3
   0678 80                 1881 	.db #0x80
   0679 EF                 1882 	.db #0xEF
   067A 80                 1883 	.db #0x80
   067B DF                 1884 	.db #0xDF
   067C 80                 1885 	.db #0x80
   067D DF                 1886 	.db #0xDF
   067E 80                 1887 	.db #0x80
   067F DF                 1888 	.db #0xDF
   0680 80                 1889 	.db #0x80
   0681 DF                 1890 	.db #0xDF
   0682 80                 1891 	.db #0x80
   0683 EF                 1892 	.db #0xEF
   0684 80                 1893 	.db #0x80
   0685 F3                 1894 	.db #0xF3
   0686 80                 1895 	.db #0x80
   0687 FC                 1896 	.db #0xFC
   0688 80                 1897 	.db #0x80
   0689 FF                 1898 	.db #0xFF
   068A 80                 1899 	.db #0x80
   068B FF                 1900 	.db #0xFF
   068C FF                 1901 	.db #0xFF
   068D 80                 1902 	.db #0x80
   068E FF                 1903 	.db #0xFF
   068F FF                 1904 	.db #0xFF
   0690 01                 1905 	.db #0x01
   0691 FE                 1906 	.db #0xFE
   0692 01                 1907 	.db #0x01
   0693 FE                 1908 	.db #0xFE
   0694 01                 1909 	.db #0x01
   0695 3E                 1910 	.db #0x3E
   0696 01                 1911 	.db #0x01
   0697 CE                 1912 	.db #0xCE
   0698 01                 1913 	.db #0x01
   0699 F6                 1914 	.db #0xF6
   069A 01                 1915 	.db #0x01
   069B FA                 1916 	.db #0xFA
   069C 01                 1917 	.db #0x01
   069D FA                 1918 	.db #0xFA
   069E 01                 1919 	.db #0x01
   069F FA                 1920 	.db #0xFA
   06A0 01                 1921 	.db #0x01
   06A1 FA                 1922 	.db #0xFA
   06A2 01                 1923 	.db #0x01
   06A3 F6                 1924 	.db #0xF6
   06A4 01                 1925 	.db #0x01
   06A5 CE                 1926 	.db #0xCE
   06A6 01                 1927 	.db #0x01
   06A7 3E                 1928 	.db #0x3E
   06A8 01                 1929 	.db #0x01
   06A9 FE                 1930 	.db #0xFE
   06AA 01                 1931 	.db #0x01
   06AB FE                 1932 	.db #0xFE
   06AC FF                 1933 	.db #0xFF
   06AD 00                 1934 	.db #0x00
   06AE FF                 1935 	.db #0xFF
   06AF FF                 1936 	.db #0xFF
   06B0 80                 1937 	.db #0x80
   06B1 FF                 1938 	.db #0xFF
   06B2 80                 1939 	.db #0x80
   06B3 FF                 1940 	.db #0xFF
   06B4 80                 1941 	.db #0x80
   06B5 C0                 1942 	.db #0xC0
   06B6 9F                 1943 	.db #0x9F
   06B7 C0                 1944 	.db #0xC0
   06B8 9F                 1945 	.db #0x9F
   06B9 C0                 1946 	.db #0xC0
   06BA 9F                 1947 	.db #0x9F
   06BB C0                 1948 	.db #0xC0
   06BC 9F                 1949 	.db #0x9F
   06BD C0                 1950 	.db #0xC0
   06BE 9F                 1951 	.db #0x9F
   06BF C0                 1952 	.db #0xC0
   06C0 9F                 1953 	.db #0x9F
   06C1 C0                 1954 	.db #0xC0
   06C2 9F                 1955 	.db #0x9F
   06C3 C0                 1956 	.db #0xC0
   06C4 9F                 1957 	.db #0x9F
   06C5 C0                 1958 	.db #0xC0
   06C6 80                 1959 	.db #0x80
   06C7 C0                 1960 	.db #0xC0
   06C8 80                 1961 	.db #0x80
   06C9 FF                 1962 	.db #0xFF
   06CA 80                 1963 	.db #0x80
   06CB FF                 1964 	.db #0xFF
   06CC FF                 1965 	.db #0xFF
   06CD 80                 1966 	.db #0x80
   06CE FF                 1967 	.db #0xFF
   06CF FF                 1968 	.db #0xFF
   06D0 01                 1969 	.db #0x01
   06D1 FE                 1970 	.db #0xFE
   06D2 01                 1971 	.db #0x01
   06D3 FE                 1972 	.db #0xFE
   06D4 01                 1973 	.db #0x01
   06D5 02                 1974 	.db #0x02
   06D6 F9                 1975 	.db #0xF9
   06D7 02                 1976 	.db #0x02
   06D8 F9                 1977 	.db #0xF9
   06D9 02                 1978 	.db #0x02
   06DA F9                 1979 	.db #0xF9
   06DB 02                 1980 	.db #0x02
   06DC F9                 1981 	.db #0xF9
   06DD 02                 1982 	.db #0x02
   06DE F9                 1983 	.db #0xF9
   06DF 02                 1984 	.db #0x02
   06E0 F9                 1985 	.db #0xF9
   06E1 02                 1986 	.db #0x02
   06E2 F9                 1987 	.db #0xF9
   06E3 02                 1988 	.db #0x02
   06E4 F9                 1989 	.db #0xF9
   06E5 02                 1990 	.db #0x02
   06E6 01                 1991 	.db #0x01
   06E7 02                 1992 	.db #0x02
   06E8 01                 1993 	.db #0x01
   06E9 FE                 1994 	.db #0xFE
   06EA 01                 1995 	.db #0x01
   06EB FE                 1996 	.db #0xFE
   06EC FF                 1997 	.db #0xFF
   06ED 00                 1998 	.db #0x00
   06EE FF                 1999 	.db #0xFF
   06EF FF                 2000 	.db #0xFF
   06F0 80                 2001 	.db #0x80
   06F1 FF                 2002 	.db #0xFF
   06F2 80                 2003 	.db #0x80
   06F3 FF                 2004 	.db #0xFF
   06F4 80                 2005 	.db #0x80
   06F5 FC                 2006 	.db #0xFC
   06F6 83                 2007 	.db #0x83
   06F7 F0                 2008 	.db #0xF0
   06F8 8F                 2009 	.db #0x8F
   06F9 E0                 2010 	.db #0xE0
   06FA 9F                 2011 	.db #0x9F
   06FB C0                 2012 	.db #0xC0
   06FC 9F                 2013 	.db #0x9F
   06FD C0                 2014 	.db #0xC0
   06FE 9F                 2015 	.db #0x9F
   06FF C0                 2016 	.db #0xC0
   0700 9F                 2017 	.db #0x9F
   0701 C0                 2018 	.db #0xC0
   0702 8F                 2019 	.db #0x8F
   0703 E0                 2020 	.db #0xE0
   0704 83                 2021 	.db #0x83
   0705 F0                 2022 	.db #0xF0
   0706 80                 2023 	.db #0x80
   0707 FC                 2024 	.db #0xFC
   0708 80                 2025 	.db #0x80
   0709 FF                 2026 	.db #0xFF
   070A 80                 2027 	.db #0x80
   070B FF                 2028 	.db #0xFF
   070C FF                 2029 	.db #0xFF
   070D 80                 2030 	.db #0x80
   070E FF                 2031 	.db #0xFF
   070F FF                 2032 	.db #0xFF
   0710 01                 2033 	.db #0x01
   0711 FE                 2034 	.db #0xFE
   0712 01                 2035 	.db #0x01
   0713 FE                 2036 	.db #0xFE
   0714 01                 2037 	.db #0x01
   0715 3E                 2038 	.db #0x3E
   0716 C1                 2039 	.db #0xC1
   0717 0E                 2040 	.db #0x0E
   0718 F1                 2041 	.db #0xF1
   0719 06                 2042 	.db #0x06
   071A F9                 2043 	.db #0xF9
   071B 02                 2044 	.db #0x02
   071C F9                 2045 	.db #0xF9
   071D 02                 2046 	.db #0x02
   071E F9                 2047 	.db #0xF9
   071F 02                 2048 	.db #0x02
   0720 F9                 2049 	.db #0xF9
   0721 02                 2050 	.db #0x02
   0722 F1                 2051 	.db #0xF1
   0723 06                 2052 	.db #0x06
   0724 C1                 2053 	.db #0xC1
   0725 0E                 2054 	.db #0x0E
   0726 01                 2055 	.db #0x01
   0727 3E                 2056 	.db #0x3E
   0728 01                 2057 	.db #0x01
   0729 FE                 2058 	.db #0xFE
   072A 01                 2059 	.db #0x01
   072B FE                 2060 	.db #0xFE
   072C FF                 2061 	.db #0xFF
   072D 00                 2062 	.db #0x00
   072E 00                 2063 	.db #0x00
   072F 00                 2064 	.db #0x00
   0730 7F                 2065 	.db #0x7F
   0731 7F                 2066 	.db #0x7F
   0732 61                 2067 	.db #0x61
   0733 61                 2068 	.db #0x61
   0734 52                 2069 	.db #0x52
   0735 52                 2070 	.db #0x52
   0736 4C                 2071 	.db #0x4C
   0737 4C                 2072 	.db #0x4C
   0738 4C                 2073 	.db #0x4C
   0739 4C                 2074 	.db #0x4C
   073A 52                 2075 	.db #0x52
   073B 52                 2076 	.db #0x52
   073C 61                 2077 	.db #0x61
   073D 61                 2078 	.db #0x61
   073E 40                 2079 	.db #0x40
   073F 5E                 2080 	.db #0x5E
   0740 40                 2081 	.db #0x40
   0741 6D                 2082 	.db #0x6D
   0742 40                 2083 	.db #0x40
   0743 73                 2084 	.db #0x73
   0744 40                 2085 	.db #0x40
   0745 73                 2086 	.db #0x73
   0746 40                 2087 	.db #0x40
   0747 6D                 2088 	.db #0x6D
   0748 40                 2089 	.db #0x40
   0749 5E                 2090 	.db #0x5E
   074A 7F                 2091 	.db #0x7F
   074B 7F                 2092 	.db #0x7F
   074C 00                 2093 	.db #0x00
   074D 7F                 2094 	.db #0x7F
   074E 00                 2095 	.db #0x00
   074F 00                 2096 	.db #0x00
   0750 FE                 2097 	.db #0xFE
   0751 FF                 2098 	.db #0xFF
   0752 FE                 2099 	.db #0xFE
   0753 87                 2100 	.db #0x87
   0754 FE                 2101 	.db #0xFE
   0755 4B                 2102 	.db #0x4B
   0756 FE                 2103 	.db #0xFE
   0757 33                 2104 	.db #0x33
   0758 FE                 2105 	.db #0xFE
   0759 33                 2106 	.db #0x33
   075A FE                 2107 	.db #0xFE
   075B 4B                 2108 	.db #0x4B
   075C FE                 2109 	.db #0xFE
   075D 87                 2110 	.db #0x87
   075E 7A                 2111 	.db #0x7A
   075F 7B                 2112 	.db #0x7B
   0760 B6                 2113 	.db #0xB6
   0761 B7                 2114 	.db #0xB7
   0762 CE                 2115 	.db #0xCE
   0763 CF                 2116 	.db #0xCF
   0764 CE                 2117 	.db #0xCE
   0765 CF                 2118 	.db #0xCF
   0766 B6                 2119 	.db #0xB6
   0767 B7                 2120 	.db #0xB7
   0768 7A                 2121 	.db #0x7A
   0769 7B                 2122 	.db #0x7B
   076A FE                 2123 	.db #0xFE
   076B FF                 2124 	.db #0xFF
   076C 00                 2125 	.db #0x00
   076D FF                 2126 	.db #0xFF
   076E 00                 2127 	.db #0x00
   076F 00                 2128 	.db #0x00
   0770 7F                 2129 	.db #0x7F
   0771 7F                 2130 	.db #0x7F
   0772 73                 2131 	.db #0x73
   0773 73                 2132 	.db #0x73
   0774 6F                 2133 	.db #0x6F
   0775 6F                 2134 	.db #0x6F
   0776 77                 2135 	.db #0x77
   0777 77                 2136 	.db #0x77
   0778 7B                 2137 	.db #0x7B
   0779 7B                 2138 	.db #0x7B
   077A 67                 2139 	.db #0x67
   077B 67                 2140 	.db #0x67
   077C 7F                 2141 	.db #0x7F
   077D 7F                 2142 	.db #0x7F
   077E 7F                 2143 	.db #0x7F
   077F 7F                 2144 	.db #0x7F
   0780 77                 2145 	.db #0x77
   0781 77                 2146 	.db #0x77
   0782 6B                 2147 	.db #0x6B
   0783 6B                 2148 	.db #0x6B
   0784 6B                 2149 	.db #0x6B
   0785 6B                 2150 	.db #0x6B
   0786 6B                 2151 	.db #0x6B
   0787 6B                 2152 	.db #0x6B
   0788 77                 2153 	.db #0x77
   0789 77                 2154 	.db #0x77
   078A 7F                 2155 	.db #0x7F
   078B 7F                 2156 	.db #0x7F
   078C 00                 2157 	.db #0x00
   078D 7F                 2158 	.db #0x7F
   078E 00                 2159 	.db #0x00
   078F 01                 2160 	.db #0x01
   0790 FE                 2161 	.db #0xFE
   0791 FF                 2162 	.db #0xFF
   0792 D6                 2163 	.db #0xD6
   0793 D7                 2164 	.db #0xD7
   0794 D6                 2165 	.db #0xD6
   0795 D7                 2166 	.db #0xD7
   0796 EE                 2167 	.db #0xEE
   0797 EF                 2168 	.db #0xEF
   0798 D6                 2169 	.db #0xD6
   0799 D7                 2170 	.db #0xD7
   079A D6                 2171 	.db #0xD6
   079B D7                 2172 	.db #0xD7
   079C FE                 2173 	.db #0xFE
   079D FF                 2174 	.db #0xFF
   079E FE                 2175 	.db #0xFE
   079F FF                 2176 	.db #0xFF
   07A0 EE                 2177 	.db #0xEE
   07A1 EF                 2178 	.db #0xEF
   07A2 D6                 2179 	.db #0xD6
   07A3 D7                 2180 	.db #0xD7
   07A4 C6                 2181 	.db #0xC6
   07A5 C7                 2182 	.db #0xC7
   07A6 D6                 2183 	.db #0xD6
   07A7 D7                 2184 	.db #0xD7
   07A8 D6                 2185 	.db #0xD6
   07A9 D7                 2186 	.db #0xD7
   07AA FE                 2187 	.db #0xFE
   07AB FF                 2188 	.db #0xFF
   07AC 00                 2189 	.db #0x00
   07AD FF                 2190 	.db #0xFF
   07AE                    2191 _cursors:
   07AE 00                 2192 	.db #0x00
   07AF 01                 2193 	.db #0x01
   07B0 01                 2194 	.db #0x01
   07B1 00                 2195 	.db #0x00
   07B2 00                 2196 	.db #0x00
   07B3 01                 2197 	.db #0x01
   07B4 02                 2198 	.db #0x02
   07B5 02                 2199 	.db #0x02
   07B6 00                 2200 	.db #0x00
   07B7 0F                 2201 	.db #0x0F
   07B8 05                 2202 	.db #0x05
   07B9 02                 2203 	.db #0x02
   07BA 02                 2204 	.db #0x02
   07BB 00                 2205 	.db #0x00
   07BC 0F                 2206 	.db #0x0F
   07BD 09                 2207 	.db #0x09
   07BE 02                 2208 	.db #0x02
   07BF 02                 2209 	.db #0x02
   07C0 02                 2210 	.db #0x02
   07C1 0F                 2211 	.db #0x0F
   07C2 0D                 2212 	.db #0x0D
   07C3 02                 2213 	.db #0x02
   07C4 02                 2214 	.db #0x02
   07C5 00                 2215 	.db #0x00
   07C6 0F                 2216 	.db #0x0F
   07C7 11                 2217 	.db #0x11
   07C8 02                 2218 	.db #0x02
   07C9 02                 2219 	.db #0x02
   07CA 05                 2220 	.db #0x05
   07CB 0A                 2221 	.db #0x0A
   07CC                    2222 _cursors_data:
   07CC FF                 2223 	.db #0xFF
   07CD 00                 2224 	.db #0x00
   07CE FF                 2225 	.db #0xFF
   07CF 7E                 2226 	.db #0x7E
   07D0 FF                 2227 	.db #0xFF
   07D1 7C                 2228 	.db #0x7C
   07D2 FE                 2229 	.db #0xFE
   07D3 78                 2230 	.db #0x78
   07D4 FF                 2231 	.db #0xFF
   07D5 7C                 2232 	.db #0x7C
   07D6 FF                 2233 	.db #0xFF
   07D7 6E                 2234 	.db #0x6E
   07D8 FF                 2235 	.db #0xFF
   07D9 46                 2236 	.db #0x46
   07DA EF                 2237 	.db #0xEF
   07DB 00                 2238 	.db #0x00
   07DC 00                 2239 	.db #0x00
   07DD 00                 2240 	.db #0x00
   07DE 00                 2241 	.db #0x00
   07DF 00                 2242 	.db #0x00
   07E0 00                 2243 	.db #0x00
   07E1 00                 2244 	.db #0x00
   07E2 00                 2245 	.db #0x00
   07E3 00                 2246 	.db #0x00
   07E4 00                 2247 	.db #0x00
   07E5 00                 2248 	.db #0x00
   07E6 01                 2249 	.db #0x01
   07E7 00                 2250 	.db #0x00
   07E8 03                 2251 	.db #0x03
   07E9 00                 2252 	.db #0x00
   07EA 07                 2253 	.db #0x07
   07EB 01                 2254 	.db #0x01
   07EC 0F                 2255 	.db #0x0F
   07ED 02                 2256 	.db #0x02
   07EE 1F                 2257 	.db #0x1F
   07EF 05                 2258 	.db #0x05
   07F0 3F                 2259 	.db #0x3F
   07F1 0A                 2260 	.db #0x0A
   07F2 7F                 2261 	.db #0x7F
   07F3 14                 2262 	.db #0x14
   07F4 7E                 2263 	.db #0x7E
   07F5 28                 2264 	.db #0x28
   07F6 FC                 2265 	.db #0xFC
   07F7 30                 2266 	.db #0x30
   07F8 F8                 2267 	.db #0xF8
   07F9 40                 2268 	.db #0x40
   07FA 60                 2269 	.db #0x60
   07FB 00                 2270 	.db #0x00
   07FC 00                 2271 	.db #0x00
   07FD 00                 2272 	.db #0x00
   07FE 00                 2273 	.db #0x00
   07FF 00                 2274 	.db #0x00
   0800 3C                 2275 	.db #0x3C
   0801 00                 2276 	.db #0x00
   0802 7C                 2277 	.db #0x7C
   0803 18                 2278 	.db #0x18
   0804 FC                 2279 	.db #0xFC
   0805 28                 2280 	.db #0x28
   0806 FC                 2281 	.db #0xFC
   0807 50                 2282 	.db #0x50
   0808 F8                 2283 	.db #0xF8
   0809 A0                 2284 	.db #0xA0
   080A F0                 2285 	.db #0xF0
   080B 40                 2286 	.db #0x40
   080C E0                 2287 	.db #0xE0
   080D 80                 2288 	.db #0x80
   080E C0                 2289 	.db #0xC0
   080F 00                 2290 	.db #0x00
   0810 80                 2291 	.db #0x80
   0811 00                 2292 	.db #0x00
   0812 00                 2293 	.db #0x00
   0813 00                 2294 	.db #0x00
   0814 00                 2295 	.db #0x00
   0815 00                 2296 	.db #0x00
   0816 00                 2297 	.db #0x00
   0817 00                 2298 	.db #0x00
   0818 00                 2299 	.db #0x00
   0819 00                 2300 	.db #0x00
   081A 00                 2301 	.db #0x00
   081B 00                 2302 	.db #0x00
   081C 00                 2303 	.db #0x00
   081D 00                 2304 	.db #0x00
   081E 00                 2305 	.db #0x00
   081F 00                 2306 	.db #0x00
   0820 00                 2307 	.db #0x00
   0821 00                 2308 	.db #0x00
   0822 00                 2309 	.db #0x00
   0823 00                 2310 	.db #0x00
   0824 01                 2311 	.db #0x01
   0825 00                 2312 	.db #0x00
   0826 03                 2313 	.db #0x03
   0827 00                 2314 	.db #0x00
   0828 07                 2315 	.db #0x07
   0829 01                 2316 	.db #0x01
   082A 0F                 2317 	.db #0x0F
   082B 02                 2318 	.db #0x02
   082C 1F                 2319 	.db #0x1F
   082D 05                 2320 	.db #0x05
   082E 7F                 2321 	.db #0x7F
   082F 0A                 2322 	.db #0x0A
   0830 FF                 2323 	.db #0xFF
   0831 34                 2324 	.db #0x34
   0832 FE                 2325 	.db #0xFE
   0833 78                 2326 	.db #0x78
   0834 FC                 2327 	.db #0xFC
   0835 78                 2328 	.db #0x78
   0836 FC                 2329 	.db #0xFC
   0837 70                 2330 	.db #0x70
   0838 F8                 2331 	.db #0xF8
   0839 40                 2332 	.db #0x40
   083A 60                 2333 	.db #0x60
   083B 00                 2334 	.db #0x00
   083C 00                 2335 	.db #0x00
   083D 00                 2336 	.db #0x00
   083E 00                 2337 	.db #0x00
   083F 00                 2338 	.db #0x00
   0840 78                 2339 	.db #0x78
   0841 00                 2340 	.db #0x00
   0842 F8                 2341 	.db #0xF8
   0843 30                 2342 	.db #0x30
   0844 F8                 2343 	.db #0xF8
   0845 50                 2344 	.db #0x50
   0846 F8                 2345 	.db #0xF8
   0847 A0                 2346 	.db #0xA0
   0848 F0                 2347 	.db #0xF0
   0849 40                 2348 	.db #0x40
   084A E0                 2349 	.db #0xE0
   084B 80                 2350 	.db #0x80
   084C C0                 2351 	.db #0xC0
   084D 00                 2352 	.db #0x00
   084E 80                 2353 	.db #0x80
   084F 00                 2354 	.db #0x00
   0850 00                 2355 	.db #0x00
   0851 00                 2356 	.db #0x00
   0852 00                 2357 	.db #0x00
   0853 00                 2358 	.db #0x00
   0854 00                 2359 	.db #0x00
   0855 00                 2360 	.db #0x00
   0856 00                 2361 	.db #0x00
   0857 00                 2362 	.db #0x00
   0858 00                 2363 	.db #0x00
   0859 00                 2364 	.db #0x00
   085A 00                 2365 	.db #0x00
   085B 00                 2366 	.db #0x00
   085C 00                 2367 	.db #0x00
   085D 00                 2368 	.db #0x00
   085E 00                 2369 	.db #0x00
   085F 00                 2370 	.db #0x00
   0860 07                 2371 	.db #0x07
   0861 00                 2372 	.db #0x00
   0862 0F                 2373 	.db #0x0F
   0863 02                 2374 	.db #0x02
   0864 1F                 2375 	.db #0x1F
   0865 05                 2376 	.db #0x05
   0866 7F                 2377 	.db #0x7F
   0867 08                 2378 	.db #0x08
   0868 FE                 2379 	.db #0xFE
   0869 31                 2380 	.db #0x31
   086A FD                 2381 	.db #0xFD
   086B 63                 2382 	.db #0x63
   086C FA                 2383 	.db #0xFA
   086D 77                 2384 	.db #0x77
   086E FD                 2385 	.db #0xFD
   086F 6E                 2386 	.db #0x6E
   0870 FF                 2387 	.db #0xFF
   0871 64                 2388 	.db #0x64
   0872 FF                 2389 	.db #0xFF
   0873 62                 2390 	.db #0x62
   0874 F7                 2391 	.db #0xF7
   0875 21                 2392 	.db #0x21
   0876 73                 2393 	.db #0x73
   0877 20                 2394 	.db #0x20
   0878 70                 2395 	.db #0x70
   0879 20                 2396 	.db #0x20
   087A 50                 2397 	.db #0x50
   087B 00                 2398 	.db #0x00
   087C 00                 2399 	.db #0x00
   087D 00                 2400 	.db #0x00
   087E 00                 2401 	.db #0x00
   087F 00                 2402 	.db #0x00
   0880 00                 2403 	.db #0x00
   0881 00                 2404 	.db #0x00
   0882 80                 2405 	.db #0x80
   0883 00                 2406 	.db #0x00
   0884 C0                 2407 	.db #0xC0
   0885 00                 2408 	.db #0x00
   0886 E0                 2409 	.db #0xE0
   0887 80                 2410 	.db #0x80
   0888 F0                 2411 	.db #0xF0
   0889 C0                 2412 	.db #0xC0
   088A 78                 2413 	.db #0x78
   088B A0                 2414 	.db #0xA0
   088C F8                 2415 	.db #0xF8
   088D 10                 2416 	.db #0x10
   088E F8                 2417 	.db #0xF8
   088F 20                 2418 	.db #0x20
   0890 F0                 2419 	.db #0xF0
   0891 40                 2420 	.db #0x40
   0892 E0                 2421 	.db #0xE0
   0893 80                 2422 	.db #0x80
   0894 C0                 2423 	.db #0xC0
   0895 00                 2424 	.db #0x00
   0896 80                 2425 	.db #0x80
   0897 00                 2426 	.db #0x00
   0898 00                 2427 	.db #0x00
   0899 00                 2428 	.db #0x00
   089A 00                 2429 	.db #0x00
   089B 00                 2430 	.db #0x00
   089C 00                 2431 	.db #0x00
   089D 00                 2432 	.db #0x00
   089E 00                 2433 	.db #0x00
   089F 00                 2434 	.db #0x00
   08A0 00                 2435 	.db #0x00
   08A1 00                 2436 	.db #0x00
   08A2 00                 2437 	.db #0x00
   08A3 00                 2438 	.db #0x00
   08A4 00                 2439 	.db #0x00
   08A5 00                 2440 	.db #0x00
   08A6 00                 2441 	.db #0x00
   08A7 00                 2442 	.db #0x00
   08A8 07                 2443 	.db #0x07
   08A9 00                 2444 	.db #0x00
   08AA 0F                 2445 	.db #0x0F
   08AB 03                 2446 	.db #0x03
   08AC 1F                 2447 	.db #0x1F
   08AD 04                 2448 	.db #0x04
   08AE 3F                 2449 	.db #0x3F
   08AF 08                 2450 	.db #0x08
   08B0 7F                 2451 	.db #0x7F
   08B1 11                 2452 	.db #0x11
   08B2 FF                 2453 	.db #0xFF
   08B3 22                 2454 	.db #0x22
   08B4 FF                 2455 	.db #0xFF
   08B5 7D                 2456 	.db #0x7D
   08B6 FF                 2457 	.db #0xFF
   08B7 46                 2458 	.db #0x46
   08B8 FF                 2459 	.db #0xFF
   08B9 7C                 2460 	.db #0x7C
   08BA 7E                 2461 	.db #0x7E
   08BB 00                 2462 	.db #0x00
   08BC 00                 2463 	.db #0x00
   08BD 00                 2464 	.db #0x00
   08BE 00                 2465 	.db #0x00
   08BF 00                 2466 	.db #0x00
   08C0 00                 2467 	.db #0x00
   08C1 00                 2468 	.db #0x00
   08C2 00                 2469 	.db #0x00
   08C3 00                 2470 	.db #0x00
   08C4 00                 2471 	.db #0x00
   08C5 00                 2472 	.db #0x00
   08C6 00                 2473 	.db #0x00
   08C7 00                 2474 	.db #0x00
   08C8 F0                 2475 	.db #0xF0
   08C9 00                 2476 	.db #0x00
   08CA F0                 2477 	.db #0xF0
   08CB E0                 2478 	.db #0xE0
   08CC F0                 2479 	.db #0xF0
   08CD 60                 2480 	.db #0x60
   08CE F0                 2481 	.db #0xF0
   08CF A0                 2482 	.db #0xA0
   08D0 F0                 2483 	.db #0xF0
   08D1 40                 2484 	.db #0x40
   08D2 E0                 2485 	.db #0xE0
   08D3 80                 2486 	.db #0x80
   08D4 C0                 2487 	.db #0xC0
   08D5 00                 2488 	.db #0x00
   08D6 80                 2489 	.db #0x80
   08D7 00                 2490 	.db #0x00
   08D8 00                 2491 	.db #0x00
   08D9 00                 2492 	.db #0x00
   08DA 00                 2493 	.db #0x00
   08DB 00                 2494 	.db #0x00
   08DC 00                 2495 	.db #0x00
   08DD 00                 2496 	.db #0x00
   08DE 00                 2497 	.db #0x00
   08DF 00                 2498 	.db #0x00
   08E0 00                 2499 	.db #0x00
   08E1 00                 2500 	.db #0x00
   08E2 00                 2501 	.db #0x00
   08E3 00                 2502 	.db #0x00
   08E4 00                 2503 	.db #0x00
   08E5 00                 2504 	.db #0x00
   08E6 0E                 2505 	.db #0x0E
   08E7 00                 2506 	.db #0x00
   08E8 0E                 2507 	.db #0x0E
   08E9 04                 2508 	.db #0x04
   08EA 0E                 2509 	.db #0x0E
   08EB 04                 2510 	.db #0x04
   08EC 0E                 2511 	.db #0x0E
   08ED 04                 2512 	.db #0x04
   08EE FF                 2513 	.db #0xFF
   08EF 04                 2514 	.db #0x04
   08F0 FB                 2515 	.db #0xFB
   08F1 7B                 2516 	.db #0x7B
   08F2 FF                 2517 	.db #0xFF
   08F3 04                 2518 	.db #0x04
   08F4 0E                 2519 	.db #0x0E
   08F5 04                 2520 	.db #0x04
   08F6 0E                 2521 	.db #0x0E
   08F7 04                 2522 	.db #0x04
   08F8 0E                 2523 	.db #0x0E
   08F9 04                 2524 	.db #0x04
   08FA 0E                 2525 	.db #0x0E
   08FB 00                 2526 	.db #0x00
   08FC 00                 2527 	.db #0x00
   08FD 00                 2528 	.db #0x00
   08FE 00                 2529 	.db #0x00
   08FF 00                 2530 	.db #0x00
   0900 00                 2531 	.db #0x00
   0901 00                 2532 	.db #0x00
   0902 00                 2533 	.db #0x00
   0903 00                 2534 	.db #0x00
   0904 00                 2535 	.db #0x00
   0905 00                 2536 	.db #0x00
   0906 00                 2537 	.db #0x00
   0907 00                 2538 	.db #0x00
   0908 00                 2539 	.db #0x00
   0909 00                 2540 	.db #0x00
   090A 00                 2541 	.db #0x00
   090B 00                 2542 	.db #0x00
   090C 00                 2543 	.db #0x00
   090D 00                 2544 	.db #0x00
   090E E0                 2545 	.db #0xE0
   090F 00                 2546 	.db #0x00
   0910 E0                 2547 	.db #0xE0
   0911 C0                 2548 	.db #0xC0
   0912 E0                 2549 	.db #0xE0
   0913 00                 2550 	.db #0x00
   0914 00                 2551 	.db #0x00
   0915 00                 2552 	.db #0x00
   0916 00                 2553 	.db #0x00
   0917 00                 2554 	.db #0x00
   0918 00                 2555 	.db #0x00
   0919 00                 2556 	.db #0x00
   091A 00                 2557 	.db #0x00
   091B 00                 2558 	.db #0x00
   091C                    2559 _colors:
   091C 00                 2560 	.db #0x00
   091D 02                 2561 	.db #0x02
   091E 01                 2562 	.db #0x01
   091F 03                 2563 	.db #0x03
   0920                    2564 _modes:
   0920 00                 2565 	.db #0x00
   0921 01                 2566 	.db #0x01
   0922 02                 2567 	.db #0x02
   0923 03                 2568 	.db #0x03
                           2569 ;	paint.c 281
                           2570 ; genLabel
                           2571 ; genFunction
                           2572 ;	---------------------------------
                           2573 ; Function move_cursor
                           2574 ; ---------------------------------
   0924                    2575 ___move_cursor_start:
   0924                    2576 _move_cursor:
   0924 C5                 2577 	push	bc
   0925 E8 EA              2578 	lda	sp,-22(sp)
                           2579 ;	paint.c 285
                           2580 ; genAssign
                           2581 ; AOP_STK for _move_cursor_x_1_1
   0927 F8 15              2582 	lda	hl,21(sp)
   0929 36 00              2583 	ld	(hl),#0x00
                           2584 ; genLabel
   092B                    2585 00105$:
                           2586 ; genIpush
   092B 3E 05              2587 	ld	a,#0x05
   092D F5                 2588 	push	af
   092E 33                 2589 	inc	sp
                           2590 ; genIpush
                           2591 ; AOP_HL for _current_cursor
   092F 21 03 03           2592 	ld	hl,#_current_cursor + 0
   0932 7E                 2593 	ld	a,(hl)
   0933 F5                 2594 	push	af
   0934 33                 2595 	inc	sp
                           2596 ; genCall
   0935 CD 00 00           2597 	call	__muluchar
   0938 43                 2598 	ld	b,e
   0939 E8 02              2599 	lda	sp,2(sp)
                           2600 ; genPlus
                           2601 ; AOP_STK for _move_cursor_sloc0_1_0
                           2602 ;	genPlusIncr failed
   093B 11 AE 07           2603 	ld	de,#_cursors + 0
   093E 68                 2604 	ld	l,b
   093F 26 00              2605 	ld	h,#0x00
   0941 19                 2606 	add	hl,de
   0942 7D                 2607 	ld	a,l
   0943 54                 2608 	ld	d,h
   0944 F8 12              2609 	lda	hl,18(sp)
   0946 22                 2610 	ld	(hl+),a
   0947 72                 2611 	ld	(hl),d
                           2612 ; genPlus
                           2613 ; AOP_STK for _move_cursor_sloc0_1_0
                           2614 ; genPlusIncr
   0948 2B                 2615 	dec	hl
   0949 5E                 2616 	ld	e,(hl)
   094A 23                 2617 	inc	hl
   094B 56                 2618 	ld	d,(hl)
   094C 13                 2619 	inc	de
                           2620 ; genPointerGet
   094D 1A                 2621 	ld	a,(de)
   094E 4F                 2622 	ld	c,a
                           2623 ; genCmpLt
                           2624 ; AOP_STK for _move_cursor_x_1_1
   094F AF                 2625 	xor	a,a
   0950 23                 2626 	inc	hl
   0951 23                 2627 	inc	hl
   0952 7E                 2628 	ld	a,(hl)
   0953 99                 2629 	sbc	a,c ; 2
   0954 D2 32 0A           2630 	jp	nc,00109$
                           2631 ;	paint.c 286
                           2632 ; genAssign
                           2633 ; AOP_STK for _move_cursor_y_1_1
   0957 2B                 2634 	dec	hl
   0958 36 00              2635 	ld	(hl),#0x00
                           2636 ; genPlus
                           2637 ; AOP_STK for _move_cursor_sloc0_1_0
                           2638 ; AOP_STK for _move_cursor_sloc1_1_0
                           2639 ; genPlusIncr
                           2640 ;	genPlusIncr failed
   095A 2B                 2641 	dec	hl
   095B 2B                 2642 	dec	hl
   095C 5E                 2643 	ld	e,(hl)
   095D 23                 2644 	inc	hl
   095E 56                 2645 	ld	d,(hl)
   095F 21 04 00           2646 	ld	hl,#0x0004
   0962 19                 2647 	add	hl,de
   0963 7D                 2648 	ld	a,l
   0964 54                 2649 	ld	d,h
   0965 F8 10              2650 	lda	hl,16(sp)
   0967 22                 2651 	ld	(hl+),a
   0968 72                 2652 	ld	(hl),d
                           2653 ; genPlus
                           2654 ; AOP_STK for _move_cursor_sloc0_1_0
                           2655 ; AOP_STK for _move_cursor_sloc2_1_0
                           2656 ; genPlusIncr
                           2657 ;	genPlusIncr failed
   0969 23                 2658 	inc	hl
   096A 5E                 2659 	ld	e,(hl)
   096B 23                 2660 	inc	hl
   096C 56                 2661 	ld	d,(hl)
   096D 21 03 00           2662 	ld	hl,#0x0003
   0970 19                 2663 	add	hl,de
   0971 7D                 2664 	ld	a,l
   0972 54                 2665 	ld	d,h
   0973 F8 0E              2666 	lda	hl,14(sp)
   0975 22                 2667 	ld	(hl+),a
   0976 72                 2668 	ld	(hl),d
                           2669 ; genLeftShift
                           2670 ; AOP_STK for _move_cursor_x_1_1
                           2671 ; AOP_STK for _move_cursor_sloc4_1_0
   0977 F8 15              2672 	lda	hl,21(sp)
   0979 7E                 2673 	ld	a,(hl)
   097A CB 17              2674 	rl	a
   097C CB 17              2675 	rl	a
   097E CB 17              2676 	rl	a
   0980 E6 F8              2677 	and	a,#0xF8
   0982 F8 0C              2678 	lda	hl,12(sp)
   0984 77                 2679 	ld	(hl),a
                           2680 ; genLeftShift
                           2681 ; AOP_STK for _move_cursor_x_1_1
                           2682 ; AOP_STK for _move_cursor_sloc3_1_0
   0985 F8 15              2683 	lda	hl,21(sp)
   0987 7E                 2684 	ld	a,(hl)
   0988 87                 2685 	add	a,a
   0989 F8 0D              2686 	lda	hl,13(sp)
   098B 77                 2687 	ld	(hl),a
                           2688 ; genPlus
                           2689 ; AOP_STK for _move_cursor_sloc0_1_0
                           2690 ; AOP_STK for _move_cursor_sloc5_1_0
                           2691 ; genPlusIncr
                           2692 ;	genPlusIncr failed
   098C F8 12              2693 	lda	hl,18(sp)
   098E 5E                 2694 	ld	e,(hl)
   098F 23                 2695 	inc	hl
   0990 56                 2696 	ld	d,(hl)
   0991 21 02 00           2697 	ld	hl,#0x0002
   0994 19                 2698 	add	hl,de
   0995 7D                 2699 	ld	a,l
   0996 54                 2700 	ld	d,h
   0997 F8 0A              2701 	lda	hl,10(sp)
   0999 22                 2702 	ld	(hl+),a
   099A 72                 2703 	ld	(hl),d
                           2704 ; genLabel
   099B                    2705 00101$:
                           2706 ; genPointerGet
                           2707 ; AOP_STK for _move_cursor_sloc5_1_0
                           2708 ; AOP_STK for _move_cursor_sloc0_1_0
   099B F8 0A              2709 	lda	hl,10(sp)
   099D 5E                 2710 	ld	e,(hl)
   099E 23                 2711 	inc	hl
   099F 56                 2712 	ld	d,(hl)
   09A0 1A                 2713 	ld	a,(de)
   09A1 F8 12              2714 	lda	hl,18(sp)
   09A3 77                 2715 	ld	(hl),a
                           2716 ; genCmpLt
                           2717 ; AOP_STK for _move_cursor_y_1_1
                           2718 ; AOP_STK for _move_cursor_sloc0_1_0
                           2719 ; AOP_STK for _move_cursor_sloc7_1_0
   09A4 AF                 2720 	xor	a,a
   09A5 23                 2721 	inc	hl
   09A6 23                 2722 	inc	hl
   09A7 7E                 2723 	ld	a,(hl)
   09A8 2B                 2724 	dec	hl
   09A9 2B                 2725 	dec	hl
   09AA 9E                 2726 	sbc	a,(hl) ; 2
   09AB 3E 00              2727 	ld	a,#0x00
   09AD 17                 2728 	rla
   09AE F8 08              2729 	lda	hl,8(sp)
   09B0 77                 2730 	ld	(hl),a
                           2731 ; genIfx
                           2732 ; AOP_STK for _move_cursor_sloc7_1_0
                           2733 ; Removed redundent or a,a
   09B1 AF                 2734 	xor	a,a
   09B2 B6                 2735 	or	a,(hl)
   09B3 CA 2C 0A           2736 	jp	z,00107$
                           2737 ;	paint.c 289
                           2738 ; genPlus
                           2739 ; AOP_HL for _cursor_y
                           2740 ; AOP_STK for _move_cursor_sloc6_1_0
                           2741 ; genPlusIncr
                           2742 ;	genPlusIncr failed
   09B6 21 06 03           2743 	ld	hl,#_cursor_y + 0
   09B9 7E                 2744 	ld	a,(hl)
   09BA C6 10              2745 	add	a,#0x10
   09BC F8 09              2746 	lda	hl,9(sp)
   09BE 77                 2747 	ld	(hl),a
                           2748 ; genPointerGet
                           2749 ; AOP_STK for _move_cursor_sloc1_1_0
                           2750 ; AOP_STK for _move_cursor_sloc9_1_0
   09BF F8 10              2751 	lda	hl,16(sp)
   09C1 5E                 2752 	ld	e,(hl)
   09C2 23                 2753 	inc	hl
   09C3 56                 2754 	ld	d,(hl)
   09C4 1A                 2755 	ld	a,(de)
   09C5 F8 06              2756 	lda	hl,6(sp)
   09C7 77                 2757 	ld	(hl),a
                           2758 ; genMinus
                           2759 ; AOP_STK for _move_cursor_sloc6_1_0
                           2760 ; AOP_STK for _move_cursor_sloc9_1_0
                           2761 ; AOP_STK for _move_cursor_sloc8_1_0
   09C8 F8 09              2762 	lda	hl,9(sp)
   09CA 7E                 2763 	ld	a,(hl)
   09CB F8 06              2764 	lda	hl,6(sp)
   09CD 96                 2765 	sub	a,(hl)
   09CE 23                 2766 	inc	hl
   09CF 77                 2767 	ld	(hl),a
                           2768 ; genLeftShift
                           2769 ; AOP_STK for _move_cursor_y_1_1
                           2770 ; AOP_STK for _move_cursor_sloc12_1_0
   09D0 F8 14              2771 	lda	hl,20(sp)
   09D2 7E                 2772 	ld	a,(hl)
   09D3 CB 17              2773 	rl	a
   09D5 CB 17              2774 	rl	a
   09D7 CB 17              2775 	rl	a
   09D9 E6 F8              2776 	and	a,#0xF8
   09DB F8 03              2777 	lda	hl,3(sp)
   09DD 77                 2778 	ld	(hl),a
                           2779 ; genPlus
                           2780 ; AOP_STK for _move_cursor_sloc8_1_0
                           2781 ; AOP_STK for _move_cursor_sloc12_1_0
                           2782 ; AOP_STK for _move_cursor_sloc10_1_0
                           2783 ;	genPlusIncr failed
   09DE F8 07              2784 	lda	hl,7(sp)
   09E0 7E                 2785 	ld	a,(hl)
   09E1 F8 03              2786 	lda	hl,3(sp)
   09E3 86                 2787 	add	a,(hl)
   09E4 23                 2788 	inc	hl
   09E5 23                 2789 	inc	hl
   09E6 77                 2790 	ld	(hl),a
                           2791 ;	paint.c 288
                           2792 ; genPlus
                           2793 ; AOP_HL for _cursor_x
                           2794 ; AOP_STK for _move_cursor_sloc11_1_0
                           2795 ; genPlusIncr
                           2796 ;	genPlusIncr failed
   09E7 21 05 03           2797 	ld	hl,#_cursor_x + 0
   09EA 7E                 2798 	ld	a,(hl)
   09EB C6 08              2799 	add	a,#0x08
   09ED F8 04              2800 	lda	hl,4(sp)
   09EF 77                 2801 	ld	(hl),a
                           2802 ; genPointerGet
                           2803 ; AOP_STK for _move_cursor_sloc2_1_0
                           2804 ; AOP_STK for _move_cursor_sloc13_1_0
   09F0 F8 0E              2805 	lda	hl,14(sp)
   09F2 5E                 2806 	ld	e,(hl)
   09F3 23                 2807 	inc	hl
   09F4 56                 2808 	ld	d,(hl)
   09F5 1A                 2809 	ld	a,(de)
   09F6 F8 02              2810 	lda	hl,2(sp)
                           2811 ; genMinus
                           2812 ; AOP_STK for _move_cursor_sloc11_1_0
                           2813 ; AOP_STK for _move_cursor_sloc13_1_0
   09F8 22                 2814 	ld	(hl+),a
   09F9 23                 2815 	inc	hl
   09FA 7E                 2816 	ld	a,(hl)
   09FB 2B                 2817 	dec	hl
   09FC 2B                 2818 	dec	hl
   09FD 96                 2819 	sub	a,(hl)
   09FE 4F                 2820 	ld	c,a
                           2821 ; genPlus
                           2822 ; AOP_STK for _move_cursor_sloc4_1_0
                           2823 ; AOP_STK for _move_cursor_sloc14_1_0
                           2824 ;	genPlusIncr failed
   09FF 79                 2825 	ld	a,c
   0A00 F8 0C              2826 	lda	hl,12(sp)
   0A02 86                 2827 	add	a,(hl)
   0A03 F8 01              2828 	lda	hl,1(sp)
   0A05 77                 2829 	ld	(hl),a
                           2830 ;	paint.c 287
                           2831 ; genPlus
                           2832 ; AOP_STK for _move_cursor_sloc3_1_0
                           2833 ; AOP_STK for _move_cursor_y_1_1
                           2834 ; AOP_STK for _move_cursor_sloc15_1_0
                           2835 ;	genPlusIncr failed
   0A06 F8 0D              2836 	lda	hl,13(sp)
   0A08 7E                 2837 	ld	a,(hl)
   0A09 F8 14              2838 	lda	hl,20(sp)
   0A0B 86                 2839 	add	a,(hl)
   0A0C F8 00              2840 	lda	hl,0(sp)
   0A0E 77                 2841 	ld	(hl),a
                           2842 ; genIpush
                           2843 ; AOP_STK for _move_cursor_sloc10_1_0
   0A0F F8 05              2844 	lda	hl,5(sp)
   0A11 7E                 2845 	ld	a,(hl)
   0A12 F5                 2846 	push	af
   0A13 33                 2847 	inc	sp
                           2848 ; genIpush
                           2849 ; AOP_STK for _move_cursor_sloc14_1_0
   0A14 F8 02              2850 	lda	hl,2(sp)
   0A16 7E                 2851 	ld	a,(hl)
   0A17 F5                 2852 	push	af
   0A18 33                 2853 	inc	sp
                           2854 ; genIpush
                           2855 ; AOP_STK for _move_cursor_sloc15_1_0
   0A19 2B                 2856 	dec	hl
   0A1A 7E                 2857 	ld	a,(hl)
   0A1B F5                 2858 	push	af
   0A1C 33                 2859 	inc	sp
                           2860 ; genCall
   0A1D CD 00 00           2861 	call	_move_sprite
   0A20 E8 03              2862 	lda	sp,3(sp)
                           2863 ;	paint.c 286
                           2864 ; genPlus
                           2865 ; AOP_STK for _move_cursor_y_1_1
                           2866 ; genPlusIncr
                           2867 ;	genPlusIncr failed
   0A22 F8 14              2868 	lda	hl,20(sp)
   0A24 7E                 2869 	ld	a,(hl)
   0A25 C6 01              2870 	add	a,#0x01
   0A27 47                 2871 	ld	b,a
                           2872 ; genAssign
                           2873 ; AOP_STK for _move_cursor_y_1_1
   0A28 70                 2874 	ld	(hl),b
                           2875 ; genGoto
   0A29 C3 9B 09           2876 	jp	00101$
                           2877 ; genLabel
   0A2C                    2878 00107$:
                           2879 ;	paint.c 285
                           2880 ; genPlus
                           2881 ; AOP_STK for _move_cursor_x_1_1
                           2882 ; genPlusIncr
   0A2C F8 15              2883 	lda	hl,21(sp)
   0A2E 34                 2884 	inc	(hl)
                           2885 ; genGoto
   0A2F C3 2B 09           2886 	jp	00105$
                           2887 ; genLabel
   0A32                    2888 00109$:
                           2889 ; genEndFunction
   0A32 E8 16              2890 	lda	sp,22(sp)
   0A34 C1                 2891 	pop	bc
   0A35 C9                 2892 	ret
   0A36                    2893 ___move_cursor_end:
                           2894 ;	paint.c 292
                           2895 ; genLabel
                           2896 ; genFunction
                           2897 ;	---------------------------------
                           2898 ; Function move_menu_cursor
                           2899 ; ---------------------------------
   0A36                    2900 ___move_menu_cursor_start:
   0A36                    2901 _move_menu_cursor:
   0A36 C5                 2902 	push	bc
   0A37 E8 FE              2903 	lda	sp,-2(sp)
                           2904 ;	paint.c 296
                           2905 ; genIpush
   0A39 3E 0A              2906 	ld	a,#0x0A
   0A3B F5                 2907 	push	af
   0A3C 33                 2908 	inc	sp
                           2909 ; genIpush
                           2910 ; AOP_HL for _menu_cursor_pos
   0A3D 21 04 03           2911 	ld	hl,#_menu_cursor_pos + 0
   0A40 7E                 2912 	ld	a,(hl)
   0A41 F5                 2913 	push	af
   0A42 33                 2914 	inc	sp
                           2915 ; genCall
   0A43 CD 00 00           2916 	call	__muluchar
   0A46 4B                 2917 	ld	c,e
   0A47 E8 02              2918 	lda	sp,2(sp)
                           2919 ; genPlus
                           2920 ; AOP_STK for _move_menu_cursor_sloc0_1_0
                           2921 ;	genPlusIncr failed
   0A49 11 FA 00           2922 	ld	de,#_icons + 0
   0A4C 69                 2923 	ld	l,c
   0A4D 26 00              2924 	ld	h,#0x00
   0A4F 19                 2925 	add	hl,de
   0A50 7D                 2926 	ld	a,l
   0A51 54                 2927 	ld	d,h
   0A52 F8 00              2928 	lda	hl,0(sp)
   0A54 22                 2929 	ld	(hl+),a
   0A55 72                 2930 	ld	(hl),d
                           2931 ; genPlus
                           2932 ; AOP_STK for _move_menu_cursor_sloc0_1_0
                           2933 ; genPlusIncr
   0A56 2B                 2934 	dec	hl
   0A57 5E                 2935 	ld	e,(hl)
   0A58 23                 2936 	inc	hl
   0A59 56                 2937 	ld	d,(hl)
   0A5A 13                 2938 	inc	de
   0A5B 13                 2939 	inc	de
                           2940 ; genPointerGet
   0A5C 1A                 2941 	ld	a,(de)
   0A5D 4F                 2942 	ld	c,a
                           2943 ; genPlus
                           2944 ; AOP_STK for _move_menu_cursor_sloc0_1_0
                           2945 ; genPlusIncr
                           2946 ;	genPlusIncr failed
   0A5E 2B                 2947 	dec	hl
   0A5F 5E                 2948 	ld	e,(hl)
   0A60 23                 2949 	inc	hl
   0A61 56                 2950 	ld	d,(hl)
   0A62 21 04 00           2951 	ld	hl,#0x0004
   0A65 19                 2952 	add	hl,de
   0A66 5D                 2953 	ld	e,l
   0A67 54                 2954 	ld	d,h
                           2955 ; genPointerGet
   0A68 1A                 2956 	ld	a,(de)
                           2957 ; genPlus
                           2958 ;	genPlusIncr failed
   0A69 81                 2959 	add	a,c
   0A6A 4F                 2960 	ld	c,a
                           2961 ; genLeftShift
   0A6B 79                 2962 	ld	a,c
   0A6C CB 17              2963 	rl	a
   0A6E CB 17              2964 	rl	a
   0A70 CB 17              2965 	rl	a
   0A72 E6 F8              2966 	and	a,#0xF8
   0A74 4F                 2967 	ld	c,a
                           2968 ; genPlus
                           2969 ; genPlusIncr
                           2970 ;	genPlusIncr failed
   0A75 79                 2971 	ld	a,c
   0A76 C6 0C              2972 	add	a,#0x0C
   0A78 4F                 2973 	ld	c,a
                           2974 ;	paint.c 295
                           2975 ; genPlus
                           2976 ; AOP_STK for _move_menu_cursor_sloc0_1_0
                           2977 ; genPlusIncr
   0A79 F8 00              2978 	lda	hl,0(sp)
   0A7B 5E                 2979 	ld	e,(hl)
   0A7C 23                 2980 	inc	hl
   0A7D 56                 2981 	ld	d,(hl)
   0A7E 13                 2982 	inc	de
                           2983 ; genPointerGet
   0A7F 1A                 2984 	ld	a,(de)
   0A80 47                 2985 	ld	b,a
                           2986 ; genPlus
                           2987 ; AOP_STK for _move_menu_cursor_sloc0_1_0
                           2988 ; genPlusIncr
                           2989 ;	genPlusIncr failed
   0A81 2B                 2990 	dec	hl
   0A82 5E                 2991 	ld	e,(hl)
   0A83 23                 2992 	inc	hl
   0A84 56                 2993 	ld	d,(hl)
   0A85 21 03 00           2994 	ld	hl,#0x0003
   0A88 19                 2995 	add	hl,de
   0A89 5D                 2996 	ld	e,l
   0A8A 54                 2997 	ld	d,h
                           2998 ; genPointerGet
   0A8B 1A                 2999 	ld	a,(de)
                           3000 ; genPlus
                           3001 ;	genPlusIncr failed
   0A8C 80                 3002 	add	a,b
   0A8D 47                 3003 	ld	b,a
                           3004 ; genLeftShift
   0A8E 78                 3005 	ld	a,b
   0A8F CB 17              3006 	rl	a
   0A91 CB 17              3007 	rl	a
   0A93 CB 17              3008 	rl	a
   0A95 E6 F8              3009 	and	a,#0xF8
   0A97 47                 3010 	ld	b,a
                           3011 ; genPlus
                           3012 ; genPlusIncr
   0A98 04                 3013 	inc	b
   0A99 04                 3014 	inc	b
   0A9A 04                 3015 	inc	b
   0A9B 04                 3016 	inc	b
                           3017 ;	paint.c 294
                           3018 ; genIpush
   0A9C 79                 3019 	ld	a,c
   0A9D F5                 3020 	push	af
   0A9E 33                 3021 	inc	sp
                           3022 ; genIpush
   0A9F 78                 3023 	ld	a,b
   0AA0 F5                 3024 	push	af
   0AA1 33                 3025 	inc	sp
                           3026 ; genIpush
   0AA2 3E 00              3027 	ld	a,#0x00
   0AA4 F5                 3028 	push	af
   0AA5 33                 3029 	inc	sp
                           3030 ; genCall
   0AA6 CD 00 00           3031 	call	_move_sprite
   0AA9 E8 03              3032 	lda	sp,3(sp)
                           3033 ; genLabel
   0AAB                    3034 00101$:
                           3035 ; genEndFunction
   0AAB E8 02              3036 	lda	sp,2(sp)
   0AAD C1                 3037 	pop	bc
   0AAE C9                 3038 	ret
   0AAF                    3039 ___move_menu_cursor_end:
                           3040 ;	paint.c 299
                           3041 ; genLabel
                           3042 ; genFunction
                           3043 ;	---------------------------------
                           3044 ; Function set_icon
                           3045 ; ---------------------------------
   0AAF                    3046 ___set_icon_start:
   0AAF                    3047 _set_icon:
   0AAF C5                 3048 	push	bc
   0AB0 E8 D6              3049 	lda	sp,-42(sp)
                           3050 ;	paint.c 303
                           3051 ; genAssign
                           3052 ; AOP_STK for _set_icon_x_1_1
   0AB2 F8 29              3053 	lda	hl,41(sp)
   0AB4 36 00              3054 	ld	(hl),#0x00
                           3055 ; genIpush
   0AB6 3E 0A              3056 	ld	a,#0x0A
   0AB8 F5                 3057 	push	af
   0AB9 33                 3058 	inc	sp
                           3059 ; genIpush
                           3060 ; AOP_STK for 
   0ABA F8 2F              3061 	lda	hl,47(sp)
   0ABC 7E                 3062 	ld	a,(hl)
   0ABD F5                 3063 	push	af
   0ABE 33                 3064 	inc	sp
                           3065 ; genCall
   0ABF CD 00 00           3066 	call	__muluchar
   0AC2 43                 3067 	ld	b,e
   0AC3 E8 02              3068 	lda	sp,2(sp)
                           3069 ; genPlus
                           3070 ; AOP_STK for _set_icon_sloc1_1_0
                           3071 ;	genPlusIncr failed
   0AC5 11 FA 00           3072 	ld	de,#_icons + 0
   0AC8 68                 3073 	ld	l,b
   0AC9 26 00              3074 	ld	h,#0x00
   0ACB 19                 3075 	add	hl,de
   0ACC 7D                 3076 	ld	a,l
   0ACD 54                 3077 	ld	d,h
   0ACE F8 22              3078 	lda	hl,34(sp)
   0AD0 22                 3079 	ld	(hl+),a
   0AD1 72                 3080 	ld	(hl),d
                           3081 ; genPlus
                           3082 ; AOP_STK for _set_icon_sloc1_1_0
                           3083 ; AOP_STK for _set_icon_sloc0_1_0
                           3084 ; genPlusIncr
                           3085 ;	genPlusIncr failed
   0AD2 2B                 3086 	dec	hl
   0AD3 5E                 3087 	ld	e,(hl)
   0AD4 23                 3088 	inc	hl
   0AD5 56                 3089 	ld	d,(hl)
   0AD6 21 03 00           3090 	ld	hl,#0x0003
   0AD9 19                 3091 	add	hl,de
   0ADA 7D                 3092 	ld	a,l
   0ADB 54                 3093 	ld	d,h
   0ADC F8 24              3094 	lda	hl,36(sp)
   0ADE 22                 3095 	ld	(hl+),a
   0ADF 72                 3096 	ld	(hl),d
                           3097 ; genLabel
   0AE0                    3098 00105$:
                           3099 ; genPointerGet
                           3100 ; AOP_STK for _set_icon_sloc0_1_0
   0AE0 F8 24              3101 	lda	hl,36(sp)
   0AE2 5E                 3102 	ld	e,(hl)
   0AE3 23                 3103 	inc	hl
   0AE4 56                 3104 	ld	d,(hl)
   0AE5 1A                 3105 	ld	a,(de)
   0AE6 4F                 3106 	ld	c,a
                           3107 ; genCmpLt
                           3108 ; AOP_STK for _set_icon_x_1_1
   0AE7 AF                 3109 	xor	a,a
   0AE8 F8 29              3110 	lda	hl,41(sp)
   0AEA 7E                 3111 	ld	a,(hl)
   0AEB 99                 3112 	sbc	a,c ; 2
   0AEC D2 3B 0C           3113 	jp	nc,00109$
                           3114 ;	paint.c 304
                           3115 ; genAssign
                           3116 ; AOP_STK for _set_icon_y_1_1
   0AEF 2B                 3117 	dec	hl
   0AF0 36 00              3118 	ld	(hl),#0x00
                           3119 ; genPlus
                           3120 ; AOP_STK for _set_icon_sloc1_1_0
                           3121 ; AOP_STK for _set_icon_sloc2_1_0
                           3122 ; genPlusIncr
                           3123 ;	genPlusIncr failed
   0AF2 F8 22              3124 	lda	hl,34(sp)
   0AF4 5E                 3125 	ld	e,(hl)
   0AF5 23                 3126 	inc	hl
   0AF6 56                 3127 	ld	d,(hl)
   0AF7 21 02 00           3128 	ld	hl,#0x0002
   0AFA 19                 3129 	add	hl,de
   0AFB 7D                 3130 	ld	a,l
   0AFC 54                 3131 	ld	d,h
   0AFD F8 20              3132 	lda	hl,32(sp)
   0AFF 22                 3133 	ld	(hl+),a
   0B00 72                 3134 	ld	(hl),d
                           3135 ; genPlus
                           3136 ; AOP_STK for _set_icon_sloc1_1_0
                           3137 ; AOP_STK for _set_icon_sloc3_1_0
                           3138 ; genPlusIncr
                           3139 ;	genPlusIncr failed
   0B01 23                 3140 	inc	hl
   0B02 5E                 3141 	ld	e,(hl)
   0B03 23                 3142 	inc	hl
   0B04 56                 3143 	ld	d,(hl)
   0B05 21 01 00           3144 	ld	hl,#0x0001
   0B08 19                 3145 	add	hl,de
   0B09 7D                 3146 	ld	a,l
   0B0A 54                 3147 	ld	d,h
   0B0B F8 1E              3148 	lda	hl,30(sp)
   0B0D 22                 3149 	ld	(hl+),a
   0B0E 72                 3150 	ld	(hl),d
                           3151 ; genPlus
                           3152 ; AOP_STK for _set_icon_sloc1_1_0
                           3153 ; AOP_STK for _set_icon_sloc5_1_0
                           3154 ; genPlusIncr
                           3155 ;	genPlusIncr failed
   0B0F F8 22              3156 	lda	hl,34(sp)
   0B11 5E                 3157 	ld	e,(hl)
   0B12 23                 3158 	inc	hl
   0B13 56                 3159 	ld	d,(hl)
   0B14 21 04 00           3160 	ld	hl,#0x0004
   0B17 19                 3161 	add	hl,de
   0B18 7D                 3162 	ld	a,l
   0B19 54                 3163 	ld	d,h
   0B1A F8 1B              3164 	lda	hl,27(sp)
   0B1C 22                 3165 	ld	(hl+),a
   0B1D 72                 3166 	ld	(hl),d
                           3167 ; genLabel
   0B1E                    3168 00101$:
                           3169 ; genPointerGet
                           3170 ; AOP_STK for _set_icon_sloc5_1_0
                           3171 ; AOP_STK for _set_icon_sloc4_1_0
   0B1E F8 1B              3172 	lda	hl,27(sp)
   0B20 5E                 3173 	ld	e,(hl)
   0B21 23                 3174 	inc	hl
   0B22 56                 3175 	ld	d,(hl)
   0B23 1A                 3176 	ld	a,(de)
   0B24 23                 3177 	inc	hl
   0B25 77                 3178 	ld	(hl),a
                           3179 ; genCmpLt
                           3180 ; AOP_STK for _set_icon_y_1_1
                           3181 ; AOP_STK for _set_icon_sloc4_1_0
                           3182 ; AOP_STK for _set_icon_sloc7_1_0
   0B26 AF                 3183 	xor	a,a
   0B27 F8 28              3184 	lda	hl,40(sp)
   0B29 7E                 3185 	ld	a,(hl)
   0B2A F8 1D              3186 	lda	hl,29(sp)
   0B2C 9E                 3187 	sbc	a,(hl) ; 2
   0B2D 3E 00              3188 	ld	a,#0x00
   0B2F 17                 3189 	rla
   0B30 F8 19              3190 	lda	hl,25(sp)
   0B32 77                 3191 	ld	(hl),a
                           3192 ; genIfx
                           3193 ; AOP_STK for _set_icon_sloc7_1_0
                           3194 ; Removed redundent or a,a
   0B33 AF                 3195 	xor	a,a
   0B34 B6                 3196 	or	a,(hl)
   0B35 CA 35 0C           3197 	jp	z,00107$
                           3198 ;	paint.c 305
                           3199 ; genPointerGet
                           3200 ; AOP_STK for _set_icon_sloc1_1_0
                           3201 ; AOP_STK for _set_icon_sloc6_1_0
   0B38 F8 22              3202 	lda	hl,34(sp)
   0B3A 5E                 3203 	ld	e,(hl)
   0B3B 23                 3204 	inc	hl
   0B3C 56                 3205 	ld	d,(hl)
   0B3D 1A                 3206 	ld	a,(de)
   0B3E F8 1A              3207 	lda	hl,26(sp)
   0B40 77                 3208 	ld	(hl),a
                           3209 ; genCast
                           3210 ; AOP_STK for _set_icon_x_1_1
                           3211 ; AOP_STK for _set_icon_sloc9_1_0
   0B41 F8 29              3212 	lda	hl,41(sp)
   0B43 7E                 3213 	ld	a,(hl)
   0B44 F8 15              3214 	lda	hl,21(sp)
   0B46 22                 3215 	ld	(hl+),a
   0B47 36 00              3216 	ld	(hl),#0x00
                           3217 ; genLeftShift
                           3218 ; AOP_STK for _set_icon_sloc9_1_0
                           3219 ; AOP_STK for _set_icon_sloc8_1_0
   0B49 2B                 3220 	dec	hl
   0B4A 2A                 3221 	ld	a,(hl+)
   0B4B 23                 3222 	inc	hl
   0B4C 77                 3223 	ld	(hl),a
   0B4D 2B                 3224 	dec	hl
   0B4E 2A                 3225 	ld	a,(hl+)
   0B4F 23                 3226 	inc	hl
   0B50 77                 3227 	ld	(hl),a
   0B51 B7                 3228 	or	a,a
   0B52 2B                 3229 	dec	hl
   0B53 CB 16              3230 	rl	(hl)
   0B55 23                 3231 	inc	hl
   0B56 CB 16              3232 	rl	(hl)
                           3233 ; genCast
                           3234 ; AOP_STK for _set_icon_sloc6_1_0
                           3235 ; AOP_STK for _set_icon_sloc11_1_0
   0B58 23                 3236 	inc	hl
   0B59 23                 3237 	inc	hl
   0B5A 7E                 3238 	ld	a,(hl)
   0B5B F8 11              3239 	lda	hl,17(sp)
   0B5D 22                 3240 	ld	(hl+),a
   0B5E 36 00              3241 	ld	(hl),#0x00
                           3242 ; genPlus
                           3243 ; AOP_STK for _set_icon_sloc11_1_0
                           3244 ; AOP_STK for _set_icon_sloc8_1_0
                           3245 ; AOP_STK for _set_icon_sloc10_1_0
                           3246 ;	genPlusIncr failed
   0B60 2B                 3247 	dec	hl
   0B61 5E                 3248 	ld	e,(hl)
   0B62 23                 3249 	inc	hl
   0B63 56                 3250 	ld	d,(hl)
   0B64 F8 17              3251 	lda	hl,23(sp)
   0B66 2A                 3252 	ld	a,(hl+)
   0B67 66                 3253 	ld	h,(hl)
   0B68 6F                 3254 	ld	l,a
   0B69 19                 3255 	add	hl,de
   0B6A 7D                 3256 	ld	a,l
   0B6B 54                 3257 	ld	d,h
   0B6C F8 13              3258 	lda	hl,19(sp)
   0B6E 22                 3259 	ld	(hl+),a
   0B6F 72                 3260 	ld	(hl),d
                           3261 ; genCast
                           3262 ; AOP_STK for _set_icon_y_1_1
                           3263 ; AOP_STK for _set_icon_sloc12_1_0
   0B70 F8 28              3264 	lda	hl,40(sp)
   0B72 7E                 3265 	ld	a,(hl)
   0B73 F8 0F              3266 	lda	hl,15(sp)
   0B75 22                 3267 	ld	(hl+),a
   0B76 36 00              3268 	ld	(hl),#0x00
                           3269 ; genPlus
                           3270 ; AOP_STK for _set_icon_sloc10_1_0
                           3271 ; AOP_STK for _set_icon_sloc12_1_0
                           3272 ; AOP_STK for _set_icon_index_2_2
                           3273 ;	genPlusIncr failed
   0B78 F8 13              3274 	lda	hl,19(sp)
   0B7A 5E                 3275 	ld	e,(hl)
   0B7B 23                 3276 	inc	hl
   0B7C 56                 3277 	ld	d,(hl)
   0B7D F8 0F              3278 	lda	hl,15(sp)
   0B7F 2A                 3279 	ld	a,(hl+)
   0B80 66                 3280 	ld	h,(hl)
   0B81 6F                 3281 	ld	l,a
   0B82 19                 3282 	add	hl,de
   0B83 7D                 3283 	ld	a,l
   0B84 54                 3284 	ld	d,h
   0B85 F8 26              3285 	lda	hl,38(sp)
   0B87 22                 3286 	ld	(hl+),a
   0B88 72                 3287 	ld	(hl),d
                           3288 ; genAssign
                           3289 ; AOP_STK for _set_icon_index_2_2
                           3290 ; (registers are the same)
                           3291 ;	paint.c 309
                           3292 ; genLeftShift
                           3293 ; AOP_STK for _set_icon_index_2_2
                           3294 ; AOP_STK for _set_icon_sloc13_1_0
   0B89 2B                 3295 	dec	hl
   0B8A 7E                 3296 	ld	a,(hl)
   0B8B F8 0D              3297 	lda	hl,13(sp)
   0B8D 77                 3298 	ld	(hl),a
   0B8E F8 27              3299 	lda	hl,39(sp)
   0B90 7E                 3300 	ld	a,(hl)
   0B91 F8 0E              3301 	lda	hl,14(sp)
   0B93 77                 3302 	ld	(hl),a
   0B94 3E 05              3303 	ld	a,#0x04+1
   0B96 18 08              3304 	jr	00121$
   0B98                    3305 00120$:
   0B98 B7                 3306 	or	a,a
   0B99 F8 0D              3307 	lda	hl,13(sp)
   0B9B CB 16              3308 	rl	(hl)
   0B9D 23                 3309 	inc	hl
   0B9E CB 16              3310 	rl	(hl)
   0BA0                    3311 00121$:
   0BA0 3D                 3312 	dec	a
   0BA1 20 F5              3313 	jr	nz,00120$
                           3314 ; genPlus
                           3315 ; AOP_STK for _set_icon_sloc13_1_0
                           3316 ; AOP_STK for _set_icon_sloc15_1_0
                           3317 ;	genPlusIncr failed
   0BA3 11 00 00           3318 	ld	de,#_data_buffer + 0
   0BA6 F8 0D              3319 	lda	hl,13(sp)
   0BA8 2A                 3320 	ld	a,(hl+)
   0BA9 66                 3321 	ld	h,(hl)
   0BAA 6F                 3322 	ld	l,a
   0BAB 19                 3323 	add	hl,de
   0BAC 7D                 3324 	ld	a,l
   0BAD 54                 3325 	ld	d,h
   0BAE F8 09              3326 	lda	hl,9(sp)
   0BB0 22                 3327 	ld	(hl+),a
   0BB1 72                 3328 	ld	(hl),d
                           3329 ; genCast
                           3330 ; AOP_STK for _set_icon_sloc15_1_0
                           3331 ; AOP_STK for _set_icon_sloc14_1_0
   0BB2 2B                 3332 	dec	hl
   0BB3 2A                 3333 	ld	a,(hl+)
   0BB4 23                 3334 	inc	hl
   0BB5 77                 3335 	ld	(hl),a
   0BB6 2B                 3336 	dec	hl
   0BB7 2A                 3337 	ld	a,(hl+)
   0BB8 23                 3338 	inc	hl
   0BB9 77                 3339 	ld	(hl),a
                           3340 ;	paint.c 308
                           3341 ; genIfx
                           3342 ; AOP_STK for 
   0BBA AF                 3343 	xor	a,a
   0BBB F8 2F              3344 	lda	hl,47(sp)
   0BBD B6                 3345 	or	a,(hl)
   0BBE B7                 3346 	or	a,a
   0BBF CA DA 0B           3347 	jp	z,00111$
                           3348 ; genPlus
                           3349 ; AOP_STK for _set_icon_sloc13_1_0
                           3350 ; AOP_STK for _set_icon_sloc17_1_0
                           3351 ;	genPlusIncr failed
   0BC2 11 AE 04           3352 	ld	de,#_selected_data + 0
   0BC5 F8 0D              3353 	lda	hl,13(sp)
   0BC7 2A                 3354 	ld	a,(hl+)
   0BC8 66                 3355 	ld	h,(hl)
   0BC9 6F                 3356 	ld	l,a
   0BCA 19                 3357 	add	hl,de
   0BCB 7D                 3358 	ld	a,l
   0BCC 54                 3359 	ld	d,h
   0BCD F8 05              3360 	lda	hl,5(sp)
   0BCF 22                 3361 	ld	(hl+),a
   0BD0 72                 3362 	ld	(hl),d
                           3363 ; genAssign
                           3364 ; AOP_STK for _set_icon_sloc17_1_0
                           3365 ; AOP_STK for _set_icon_sloc16_1_0
   0BD1 2B                 3366 	dec	hl
   0BD2 2A                 3367 	ld	a,(hl+)
   0BD3 5E                 3368 	ld	e,(hl)
   0BD4 23                 3369 	inc	hl
   0BD5 22                 3370 	ld	(hl+),a
   0BD6 73                 3371 	ld	(hl),e
                           3372 ; genGoto
   0BD7 C3 F0 0B           3373 	jp	00112$
                           3374 ; genLabel
   0BDA                    3375 00111$:
                           3376 ; genPlus
                           3377 ; AOP_STK for _set_icon_sloc13_1_0
                           3378 ; AOP_STK for _set_icon_sloc18_1_0
                           3379 ;	genPlusIncr failed
   0BDA 11 AE 01           3380 	ld	de,#_data + 0
   0BDD F8 0D              3381 	lda	hl,13(sp)
   0BDF 2A                 3382 	ld	a,(hl+)
   0BE0 66                 3383 	ld	h,(hl)
   0BE1 6F                 3384 	ld	l,a
   0BE2 19                 3385 	add	hl,de
   0BE3 7D                 3386 	ld	a,l
   0BE4 54                 3387 	ld	d,h
   0BE5 F8 03              3388 	lda	hl,3(sp)
   0BE7 22                 3389 	ld	(hl+),a
   0BE8 72                 3390 	ld	(hl),d
                           3391 ; genAssign
                           3392 ; AOP_STK for _set_icon_sloc18_1_0
                           3393 ; AOP_STK for _set_icon_sloc16_1_0
   0BE9 2B                 3394 	dec	hl
   0BEA 2A                 3395 	ld	a,(hl+)
   0BEB 5E                 3396 	ld	e,(hl)
   0BEC F8 07              3397 	lda	hl,7(sp)
   0BEE 22                 3398 	ld	(hl+),a
   0BEF 73                 3399 	ld	(hl),e
                           3400 ; genLabel
   0BF0                    3401 00112$:
                           3402 ; genCast
                           3403 ; AOP_STK for _set_icon_sloc16_1_0
                           3404 ; AOP_STK for _set_icon_sloc19_1_0
   0BF0 F8 07              3405 	lda	hl,7(sp)
   0BF2 7E                 3406 	ld	a,(hl)
   0BF3 F8 01              3407 	lda	hl,1(sp)
   0BF5 77                 3408 	ld	(hl),a
   0BF6 F8 08              3409 	lda	hl,8(sp)
   0BF8 7E                 3410 	ld	a,(hl)
   0BF9 F8 02              3411 	lda	hl,2(sp)
   0BFB 77                 3412 	ld	(hl),a
                           3413 ;	paint.c 307
                           3414 ; genPointerGet
                           3415 ; AOP_STK for _set_icon_sloc2_1_0
   0BFC F8 20              3416 	lda	hl,32(sp)
   0BFE 5E                 3417 	ld	e,(hl)
   0BFF 23                 3418 	inc	hl
   0C00 56                 3419 	ld	d,(hl)
   0C01 1A                 3420 	ld	a,(de)
                           3421 ; genPlus
                           3422 ; AOP_STK for _set_icon_y_1_1
                           3423 ;	genPlusIncr failed
   0C02 F8 28              3424 	lda	hl,40(sp)
   0C04 86                 3425 	add	a,(hl)
   0C05 4F                 3426 	ld	c,a
                           3427 ;	paint.c 306
                           3428 ; genPointerGet
                           3429 ; AOP_STK for _set_icon_sloc3_1_0
   0C06 F8 1E              3430 	lda	hl,30(sp)
   0C08 5E                 3431 	ld	e,(hl)
   0C09 23                 3432 	inc	hl
   0C0A 56                 3433 	ld	d,(hl)
   0C0B 1A                 3434 	ld	a,(de)
                           3435 ; genPlus
                           3436 ; AOP_STK for _set_icon_x_1_1
                           3437 ; AOP_STK for _set_icon_sloc20_1_0
                           3438 ;	genPlusIncr failed
   0C0C F8 29              3439 	lda	hl,41(sp)
   0C0E 86                 3440 	add	a,(hl)
   0C0F F8 00              3441 	lda	hl,0(sp)
   0C11 77                 3442 	ld	(hl),a
                           3443 ; genIpush
                           3444 ; AOP_STK for _set_icon_sloc14_1_0
   0C12 F8 0B              3445 	lda	hl,11(sp)
   0C14 2A                 3446 	ld	a,(hl+)
   0C15 66                 3447 	ld	h,(hl)
   0C16 6F                 3448 	ld	l,a
   0C17 E5                 3449 	push	hl
                           3450 ; genIpush
                           3451 ; AOP_STK for _set_icon_sloc19_1_0
   0C18 F8 03              3452 	lda	hl,3(sp)
   0C1A 2A                 3453 	ld	a,(hl+)
   0C1B 66                 3454 	ld	h,(hl)
   0C1C 6F                 3455 	ld	l,a
   0C1D E5                 3456 	push	hl
                           3457 ; genIpush
   0C1E 79                 3458 	ld	a,c
   0C1F F5                 3459 	push	af
   0C20 33                 3460 	inc	sp
                           3461 ; genIpush
                           3462 ; AOP_STK for _set_icon_sloc20_1_0
   0C21 F8 05              3463 	lda	hl,5(sp)
   0C23 7E                 3464 	ld	a,(hl)
   0C24 F5                 3465 	push	af
   0C25 33                 3466 	inc	sp
                           3467 ; genCall
   0C26 CD 00 00           3468 	call	_switch_data
   0C29 E8 06              3469 	lda	sp,6(sp)
                           3470 ;	paint.c 304
                           3471 ; genPlus
                           3472 ; AOP_STK for _set_icon_y_1_1
                           3473 ; genPlusIncr
                           3474 ;	genPlusIncr failed
   0C2B F8 28              3475 	lda	hl,40(sp)
   0C2D 7E                 3476 	ld	a,(hl)
   0C2E C6 01              3477 	add	a,#0x01
   0C30 47                 3478 	ld	b,a
                           3479 ; genAssign
                           3480 ; AOP_STK for _set_icon_y_1_1
   0C31 70                 3481 	ld	(hl),b
                           3482 ; genGoto
   0C32 C3 1E 0B           3483 	jp	00101$
                           3484 ; genLabel
   0C35                    3485 00107$:
                           3486 ;	paint.c 303
                           3487 ; genPlus
                           3488 ; AOP_STK for _set_icon_x_1_1
                           3489 ; genPlusIncr
   0C35 F8 29              3490 	lda	hl,41(sp)
   0C37 34                 3491 	inc	(hl)
                           3492 ; genGoto
   0C38 C3 E0 0A           3493 	jp	00105$
                           3494 ; genLabel
   0C3B                    3495 00109$:
                           3496 ; genEndFunction
   0C3B E8 2A              3497 	lda	sp,42(sp)
   0C3D C1                 3498 	pop	bc
   0C3E C9                 3499 	ret
   0C3F                    3500 ___set_icon_end:
                           3501 ;	paint.c 313
                           3502 ; genLabel
                           3503 ; genFunction
                           3504 ;	---------------------------------
                           3505 ; Function change_icon
                           3506 ; ---------------------------------
   0C3F                    3507 ___change_icon_start:
   0C3F                    3508 _change_icon:
   0C3F C5                 3509 	push	bc
   0C40 E8 CB              3510 	lda	sp,-53(sp)
                           3511 ;	paint.c 317
                           3512 ; genAssign
                           3513 ; AOP_STK for _change_icon_x_1_1
   0C42 F8 34              3514 	lda	hl,52(sp)
   0C44 36 00              3515 	ld	(hl),#0x00
                           3516 ; genIpush
   0C46 3E 0A              3517 	ld	a,#0x0A
   0C48 F5                 3518 	push	af
   0C49 33                 3519 	inc	sp
                           3520 ; genIpush
                           3521 ; AOP_STK for 
   0C4A F8 3A              3522 	lda	hl,58(sp)
   0C4C 7E                 3523 	ld	a,(hl)
   0C4D F5                 3524 	push	af
   0C4E 33                 3525 	inc	sp
                           3526 ; genCall
   0C4F CD 00 00           3527 	call	__muluchar
   0C52 43                 3528 	ld	b,e
   0C53 E8 02              3529 	lda	sp,2(sp)
                           3530 ; genPlus
                           3531 ; AOP_STK for _change_icon_sloc1_1_0
                           3532 ;	genPlusIncr failed
   0C55 11 FA 00           3533 	ld	de,#_icons + 0
   0C58 68                 3534 	ld	l,b
   0C59 26 00              3535 	ld	h,#0x00
   0C5B 19                 3536 	add	hl,de
   0C5C 7D                 3537 	ld	a,l
   0C5D 54                 3538 	ld	d,h
   0C5E F8 2F              3539 	lda	hl,47(sp)
   0C60 22                 3540 	ld	(hl+),a
   0C61 72                 3541 	ld	(hl),d
                           3542 ; genPlus
                           3543 ; AOP_STK for _change_icon_sloc1_1_0
                           3544 ; AOP_STK for _change_icon_sloc0_1_0
                           3545 ; genPlusIncr
                           3546 ;	genPlusIncr failed
   0C62 2B                 3547 	dec	hl
   0C63 5E                 3548 	ld	e,(hl)
   0C64 23                 3549 	inc	hl
   0C65 56                 3550 	ld	d,(hl)
   0C66 21 03 00           3551 	ld	hl,#0x0003
   0C69 19                 3552 	add	hl,de
   0C6A 7D                 3553 	ld	a,l
   0C6B 54                 3554 	ld	d,h
   0C6C F8 31              3555 	lda	hl,49(sp)
   0C6E 22                 3556 	ld	(hl+),a
   0C6F 72                 3557 	ld	(hl),d
                           3558 ; genLabel
   0C70                    3559 00105$:
                           3560 ; genPointerGet
                           3561 ; AOP_STK for _change_icon_sloc0_1_0
   0C70 F8 31              3562 	lda	hl,49(sp)
   0C72 5E                 3563 	ld	e,(hl)
   0C73 23                 3564 	inc	hl
   0C74 56                 3565 	ld	d,(hl)
   0C75 1A                 3566 	ld	a,(de)
   0C76 4F                 3567 	ld	c,a
                           3568 ; genCmpLt
                           3569 ; AOP_STK for _change_icon_x_1_1
   0C77 AF                 3570 	xor	a,a
   0C78 23                 3571 	inc	hl
   0C79 23                 3572 	inc	hl
   0C7A 7E                 3573 	ld	a,(hl)
   0C7B 99                 3574 	sbc	a,c ; 2
   0C7C D2 1D 0E           3575 	jp	nc,00109$
                           3576 ;	paint.c 318
                           3577 ; genAssign
                           3578 ; AOP_STK for _change_icon_y_1_1
   0C7F 2B                 3579 	dec	hl
   0C80 36 00              3580 	ld	(hl),#0x00
                           3581 ; genPlus
                           3582 ; AOP_STK for _change_icon_sloc1_1_0
                           3583 ; AOP_STK for _change_icon_sloc2_1_0
                           3584 ; genPlusIncr
                           3585 ;	genPlusIncr failed
   0C82 F8 2F              3586 	lda	hl,47(sp)
   0C84 5E                 3587 	ld	e,(hl)
   0C85 23                 3588 	inc	hl
   0C86 56                 3589 	ld	d,(hl)
   0C87 21 02 00           3590 	ld	hl,#0x0002
   0C8A 19                 3591 	add	hl,de
   0C8B 7D                 3592 	ld	a,l
   0C8C 54                 3593 	ld	d,h
   0C8D F8 2D              3594 	lda	hl,45(sp)
   0C8F 22                 3595 	ld	(hl+),a
   0C90 72                 3596 	ld	(hl),d
                           3597 ; genPlus
                           3598 ; AOP_STK for _change_icon_sloc1_1_0
                           3599 ; AOP_STK for _change_icon_sloc3_1_0
                           3600 ; genPlusIncr
                           3601 ;	genPlusIncr failed
   0C91 23                 3602 	inc	hl
   0C92 5E                 3603 	ld	e,(hl)
   0C93 23                 3604 	inc	hl
   0C94 56                 3605 	ld	d,(hl)
   0C95 21 01 00           3606 	ld	hl,#0x0001
   0C98 19                 3607 	add	hl,de
   0C99 7D                 3608 	ld	a,l
   0C9A 54                 3609 	ld	d,h
   0C9B F8 2B              3610 	lda	hl,43(sp)
   0C9D 22                 3611 	ld	(hl+),a
   0C9E 72                 3612 	ld	(hl),d
                           3613 ; genPlus
                           3614 ; AOP_STK for _change_icon_sloc1_1_0
                           3615 ; AOP_STK for _change_icon_sloc5_1_0
                           3616 ; genPlusIncr
                           3617 ;	genPlusIncr failed
   0C9F F8 2F              3618 	lda	hl,47(sp)
   0CA1 5E                 3619 	ld	e,(hl)
   0CA2 23                 3620 	inc	hl
   0CA3 56                 3621 	ld	d,(hl)
   0CA4 21 04 00           3622 	ld	hl,#0x0004
   0CA7 19                 3623 	add	hl,de
   0CA8 7D                 3624 	ld	a,l
   0CA9 54                 3625 	ld	d,h
   0CAA F8 28              3626 	lda	hl,40(sp)
   0CAC 22                 3627 	ld	(hl+),a
   0CAD 72                 3628 	ld	(hl),d
                           3629 ; genLabel
   0CAE                    3630 00101$:
                           3631 ; genPointerGet
                           3632 ; AOP_STK for _change_icon_sloc5_1_0
                           3633 ; AOP_STK for _change_icon_sloc4_1_0
   0CAE F8 28              3634 	lda	hl,40(sp)
   0CB0 5E                 3635 	ld	e,(hl)
   0CB1 23                 3636 	inc	hl
   0CB2 56                 3637 	ld	d,(hl)
   0CB3 1A                 3638 	ld	a,(de)
   0CB4 23                 3639 	inc	hl
   0CB5 77                 3640 	ld	(hl),a
                           3641 ; genCmpLt
                           3642 ; AOP_STK for _change_icon_y_1_1
                           3643 ; AOP_STK for _change_icon_sloc4_1_0
                           3644 ; AOP_STK for _change_icon_sloc7_1_0
   0CB6 AF                 3645 	xor	a,a
   0CB7 F8 33              3646 	lda	hl,51(sp)
   0CB9 7E                 3647 	ld	a,(hl)
   0CBA F8 2A              3648 	lda	hl,42(sp)
   0CBC 9E                 3649 	sbc	a,(hl) ; 2
   0CBD 3E 00              3650 	ld	a,#0x00
   0CBF 17                 3651 	rla
   0CC0 F8 26              3652 	lda	hl,38(sp)
   0CC2 77                 3653 	ld	(hl),a
                           3654 ; genIfx
                           3655 ; AOP_STK for _change_icon_sloc7_1_0
                           3656 ; Removed redundent or a,a
   0CC3 AF                 3657 	xor	a,a
   0CC4 B6                 3658 	or	a,(hl)
   0CC5 CA 17 0E           3659 	jp	z,00107$
                           3660 ;	paint.c 321
                           3661 ; genIfx
                           3662 ; AOP_STK for 
   0CC8 AF                 3663 	xor	a,a
   0CC9 F8 3A              3664 	lda	hl,58(sp)
   0CCB B6                 3665 	or	a,(hl)
   0CCC B7                 3666 	or	a,a
   0CCD CA 54 0D           3667 	jp	z,00111$
                           3668 ;	paint.c 322
                           3669 ; genPointerGet
                           3670 ; AOP_STK for _change_icon_sloc1_1_0
                           3671 ; AOP_STK for _change_icon_sloc6_1_0
   0CD0 F8 2F              3672 	lda	hl,47(sp)
   0CD2 5E                 3673 	ld	e,(hl)
   0CD3 23                 3674 	inc	hl
   0CD4 56                 3675 	ld	d,(hl)
   0CD5 1A                 3676 	ld	a,(de)
   0CD6 F8 27              3677 	lda	hl,39(sp)
   0CD8 77                 3678 	ld	(hl),a
                           3679 ; genCast
                           3680 ; AOP_STK for _change_icon_x_1_1
                           3681 ; AOP_STK for _change_icon_sloc9_1_0
   0CD9 F8 34              3682 	lda	hl,52(sp)
   0CDB 7E                 3683 	ld	a,(hl)
   0CDC F8 22              3684 	lda	hl,34(sp)
   0CDE 22                 3685 	ld	(hl+),a
   0CDF 36 00              3686 	ld	(hl),#0x00
                           3687 ; genLeftShift
                           3688 ; AOP_STK for _change_icon_sloc9_1_0
                           3689 ; AOP_STK for _change_icon_sloc8_1_0
   0CE1 2B                 3690 	dec	hl
   0CE2 2A                 3691 	ld	a,(hl+)
   0CE3 23                 3692 	inc	hl
   0CE4 77                 3693 	ld	(hl),a
   0CE5 2B                 3694 	dec	hl
   0CE6 2A                 3695 	ld	a,(hl+)
   0CE7 23                 3696 	inc	hl
   0CE8 77                 3697 	ld	(hl),a
   0CE9 B7                 3698 	or	a,a
   0CEA 2B                 3699 	dec	hl
   0CEB CB 16              3700 	rl	(hl)
   0CED 23                 3701 	inc	hl
   0CEE CB 16              3702 	rl	(hl)
                           3703 ; genCast
                           3704 ; AOP_STK for _change_icon_sloc6_1_0
                           3705 ; AOP_STK for _change_icon_sloc11_1_0
   0CF0 23                 3706 	inc	hl
   0CF1 23                 3707 	inc	hl
   0CF2 7E                 3708 	ld	a,(hl)
   0CF3 F8 1E              3709 	lda	hl,30(sp)
   0CF5 22                 3710 	ld	(hl+),a
   0CF6 36 00              3711 	ld	(hl),#0x00
                           3712 ; genPlus
                           3713 ; AOP_STK for _change_icon_sloc11_1_0
                           3714 ; AOP_STK for _change_icon_sloc8_1_0
                           3715 ; AOP_STK for _change_icon_sloc10_1_0
                           3716 ;	genPlusIncr failed
   0CF8 2B                 3717 	dec	hl
   0CF9 5E                 3718 	ld	e,(hl)
   0CFA 23                 3719 	inc	hl
   0CFB 56                 3720 	ld	d,(hl)
   0CFC F8 24              3721 	lda	hl,36(sp)
   0CFE 2A                 3722 	ld	a,(hl+)
   0CFF 66                 3723 	ld	h,(hl)
   0D00 6F                 3724 	ld	l,a
   0D01 19                 3725 	add	hl,de
   0D02 7D                 3726 	ld	a,l
   0D03 54                 3727 	ld	d,h
   0D04 F8 20              3728 	lda	hl,32(sp)
   0D06 22                 3729 	ld	(hl+),a
   0D07 72                 3730 	ld	(hl),d
                           3731 ; genCast
                           3732 ; AOP_STK for _change_icon_y_1_1
                           3733 ; AOP_STK for _change_icon_sloc13_1_0
   0D08 F8 33              3734 	lda	hl,51(sp)
   0D0A 7E                 3735 	ld	a,(hl)
   0D0B F8 1A              3736 	lda	hl,26(sp)
   0D0D 22                 3737 	ld	(hl+),a
   0D0E 36 00              3738 	ld	(hl),#0x00
                           3739 ; genPlus
                           3740 ; AOP_STK for _change_icon_sloc10_1_0
                           3741 ; AOP_STK for _change_icon_sloc13_1_0
                           3742 ; AOP_STK for _change_icon_sloc12_1_0
                           3743 ;	genPlusIncr failed
   0D10 F8 20              3744 	lda	hl,32(sp)
   0D12 5E                 3745 	ld	e,(hl)
   0D13 23                 3746 	inc	hl
   0D14 56                 3747 	ld	d,(hl)
   0D15 F8 1A              3748 	lda	hl,26(sp)
   0D17 2A                 3749 	ld	a,(hl+)
   0D18 66                 3750 	ld	h,(hl)
   0D19 6F                 3751 	ld	l,a
   0D1A 19                 3752 	add	hl,de
   0D1B 7D                 3753 	ld	a,l
   0D1C 54                 3754 	ld	d,h
   0D1D F8 1C              3755 	lda	hl,28(sp)
   0D1F 22                 3756 	ld	(hl+),a
   0D20 72                 3757 	ld	(hl),d
                           3758 ; genLeftShift
                           3759 ; AOP_STK for _change_icon_sloc12_1_0
                           3760 ; AOP_STK for _change_icon_sloc15_1_0
   0D21 2B                 3761 	dec	hl
   0D22 7E                 3762 	ld	a,(hl)
   0D23 F8 16              3763 	lda	hl,22(sp)
   0D25 77                 3764 	ld	(hl),a
   0D26 F8 1D              3765 	lda	hl,29(sp)
   0D28 7E                 3766 	ld	a,(hl)
   0D29 F8 17              3767 	lda	hl,23(sp)
   0D2B 77                 3768 	ld	(hl),a
   0D2C 3E 05              3769 	ld	a,#0x04+1
   0D2E 18 08              3770 	jr	00121$
   0D30                    3771 00120$:
   0D30 B7                 3772 	or	a,a
   0D31 F8 16              3773 	lda	hl,22(sp)
   0D33 CB 16              3774 	rl	(hl)
   0D35 23                 3775 	inc	hl
   0D36 CB 16              3776 	rl	(hl)
   0D38                    3777 00121$:
   0D38 3D                 3778 	dec	a
   0D39 20 F5              3779 	jr	nz,00120$
                           3780 ; genPlus
                           3781 ; AOP_STK for _change_icon_sloc15_1_0
                           3782 ; AOP_STK for _change_icon_sloc14_1_0
                           3783 ;	genPlusIncr failed
   0D3B 11 AE 04           3784 	ld	de,#_selected_data + 0
   0D3E F8 16              3785 	lda	hl,22(sp)
   0D40 2A                 3786 	ld	a,(hl+)
   0D41 66                 3787 	ld	h,(hl)
   0D42 6F                 3788 	ld	l,a
   0D43 19                 3789 	add	hl,de
   0D44 7D                 3790 	ld	a,l
   0D45 54                 3791 	ld	d,h
   0D46 F8 18              3792 	lda	hl,24(sp)
   0D48 22                 3793 	ld	(hl+),a
   0D49 72                 3794 	ld	(hl),d
                           3795 ; genAssign
                           3796 ; AOP_STK for _change_icon_sloc14_1_0
                           3797 ; AOP_STK for _change_icon_sloc16_1_0
   0D4A 2B                 3798 	dec	hl
   0D4B 2A                 3799 	ld	a,(hl+)
   0D4C 5E                 3800 	ld	e,(hl)
   0D4D F8 14              3801 	lda	hl,20(sp)
   0D4F 22                 3802 	ld	(hl+),a
   0D50 73                 3803 	ld	(hl),e
                           3804 ; genGoto
   0D51 C3 D4 0D           3805 	jp	00112$
                           3806 ; genLabel
   0D54                    3807 00111$:
                           3808 ;	paint.c 323
                           3809 ; genPointerGet
                           3810 ; AOP_STK for _change_icon_sloc1_1_0
                           3811 ; AOP_STK for _change_icon_sloc17_1_0
   0D54 F8 2F              3812 	lda	hl,47(sp)
   0D56 5E                 3813 	ld	e,(hl)
   0D57 23                 3814 	inc	hl
   0D58 56                 3815 	ld	d,(hl)
   0D59 1A                 3816 	ld	a,(de)
   0D5A F8 13              3817 	lda	hl,19(sp)
   0D5C 77                 3818 	ld	(hl),a
                           3819 ; genCast
                           3820 ; AOP_STK for _change_icon_x_1_1
                           3821 ; AOP_STK for _change_icon_sloc19_1_0
   0D5D F8 34              3822 	lda	hl,52(sp)
   0D5F 7E                 3823 	ld	a,(hl)
   0D60 F8 0F              3824 	lda	hl,15(sp)
   0D62 22                 3825 	ld	(hl+),a
   0D63 36 00              3826 	ld	(hl),#0x00
                           3827 ; genLeftShift
                           3828 ; AOP_STK for _change_icon_sloc19_1_0
                           3829 ; AOP_STK for _change_icon_sloc18_1_0
   0D65 2B                 3830 	dec	hl
   0D66 2A                 3831 	ld	a,(hl+)
   0D67 23                 3832 	inc	hl
   0D68 77                 3833 	ld	(hl),a
   0D69 2B                 3834 	dec	hl
   0D6A 2A                 3835 	ld	a,(hl+)
   0D6B 23                 3836 	inc	hl
   0D6C 77                 3837 	ld	(hl),a
   0D6D B7                 3838 	or	a,a
   0D6E 2B                 3839 	dec	hl
   0D6F CB 16              3840 	rl	(hl)
   0D71 23                 3841 	inc	hl
   0D72 CB 16              3842 	rl	(hl)
                           3843 ; genCast
                           3844 ; AOP_STK for _change_icon_sloc17_1_0
                           3845 ; AOP_STK for _change_icon_sloc21_1_0
   0D74 23                 3846 	inc	hl
   0D75 7E                 3847 	ld	a,(hl)
   0D76 F8 0B              3848 	lda	hl,11(sp)
   0D78 22                 3849 	ld	(hl+),a
   0D79 36 00              3850 	ld	(hl),#0x00
                           3851 ; genPlus
                           3852 ; AOP_STK for _change_icon_sloc21_1_0
                           3853 ; AOP_STK for _change_icon_sloc18_1_0
                           3854 ; AOP_STK for _change_icon_sloc20_1_0
                           3855 ;	genPlusIncr failed
   0D7B 2B                 3856 	dec	hl
   0D7C 5E                 3857 	ld	e,(hl)
   0D7D 23                 3858 	inc	hl
   0D7E 56                 3859 	ld	d,(hl)
   0D7F F8 11              3860 	lda	hl,17(sp)
   0D81 2A                 3861 	ld	a,(hl+)
   0D82 66                 3862 	ld	h,(hl)
   0D83 6F                 3863 	ld	l,a
   0D84 19                 3864 	add	hl,de
   0D85 7D                 3865 	ld	a,l
   0D86 54                 3866 	ld	d,h
   0D87 F8 0D              3867 	lda	hl,13(sp)
   0D89 22                 3868 	ld	(hl+),a
   0D8A 72                 3869 	ld	(hl),d
                           3870 ; genCast
                           3871 ; AOP_STK for _change_icon_y_1_1
                           3872 ; AOP_STK for _change_icon_sloc23_1_0
   0D8B F8 33              3873 	lda	hl,51(sp)
   0D8D 7E                 3874 	ld	a,(hl)
   0D8E F8 07              3875 	lda	hl,7(sp)
   0D90 22                 3876 	ld	(hl+),a
   0D91 36 00              3877 	ld	(hl),#0x00
                           3878 ; genPlus
                           3879 ; AOP_STK for _change_icon_sloc20_1_0
                           3880 ; AOP_STK for _change_icon_sloc23_1_0
                           3881 ; AOP_STK for _change_icon_sloc22_1_0
                           3882 ;	genPlusIncr failed
   0D93 F8 0D              3883 	lda	hl,13(sp)
   0D95 5E                 3884 	ld	e,(hl)
   0D96 23                 3885 	inc	hl
   0D97 56                 3886 	ld	d,(hl)
   0D98 F8 07              3887 	lda	hl,7(sp)
   0D9A 2A                 3888 	ld	a,(hl+)
   0D9B 66                 3889 	ld	h,(hl)
   0D9C 6F                 3890 	ld	l,a
   0D9D 19                 3891 	add	hl,de
   0D9E 7D                 3892 	ld	a,l
   0D9F 54                 3893 	ld	d,h
   0DA0 F8 09              3894 	lda	hl,9(sp)
   0DA2 22                 3895 	ld	(hl+),a
   0DA3 72                 3896 	ld	(hl),d
                           3897 ; genLeftShift
                           3898 ; AOP_STK for _change_icon_sloc22_1_0
                           3899 ; AOP_STK for _change_icon_sloc25_1_0
   0DA4 2B                 3900 	dec	hl
   0DA5 7E                 3901 	ld	a,(hl)
   0DA6 F8 03              3902 	lda	hl,3(sp)
   0DA8 77                 3903 	ld	(hl),a
   0DA9 F8 0A              3904 	lda	hl,10(sp)
   0DAB 7E                 3905 	ld	a,(hl)
   0DAC F8 04              3906 	lda	hl,4(sp)
   0DAE 77                 3907 	ld	(hl),a
   0DAF 3E 05              3908 	ld	a,#0x04+1
   0DB1 18 08              3909 	jr	00125$
   0DB3                    3910 00124$:
   0DB3 B7                 3911 	or	a,a
   0DB4 F8 03              3912 	lda	hl,3(sp)
   0DB6 CB 16              3913 	rl	(hl)
   0DB8 23                 3914 	inc	hl
   0DB9 CB 16              3915 	rl	(hl)
   0DBB                    3916 00125$:
   0DBB 3D                 3917 	dec	a
   0DBC 20 F5              3918 	jr	nz,00124$
                           3919 ; genPlus
                           3920 ; AOP_STK for _change_icon_sloc25_1_0
                           3921 ; AOP_STK for _change_icon_sloc24_1_0
                           3922 ;	genPlusIncr failed
   0DBE 11 AE 01           3923 	ld	de,#_data + 0
   0DC1 F8 03              3924 	lda	hl,3(sp)
   0DC3 2A                 3925 	ld	a,(hl+)
   0DC4 66                 3926 	ld	h,(hl)
   0DC5 6F                 3927 	ld	l,a
   0DC6 19                 3928 	add	hl,de
   0DC7 7D                 3929 	ld	a,l
   0DC8 54                 3930 	ld	d,h
   0DC9 F8 05              3931 	lda	hl,5(sp)
   0DCB 22                 3932 	ld	(hl+),a
   0DCC 72                 3933 	ld	(hl),d
                           3934 ; genAssign
                           3935 ; AOP_STK for _change_icon_sloc24_1_0
                           3936 ; AOP_STK for _change_icon_sloc16_1_0
   0DCD 2B                 3937 	dec	hl
   0DCE 2A                 3938 	ld	a,(hl+)
   0DCF 5E                 3939 	ld	e,(hl)
   0DD0 F8 14              3940 	lda	hl,20(sp)
   0DD2 22                 3941 	ld	(hl+),a
   0DD3 73                 3942 	ld	(hl),e
                           3943 ; genLabel
   0DD4                    3944 00112$:
                           3945 ; genCast
                           3946 ; AOP_STK for _change_icon_sloc16_1_0
                           3947 ; AOP_STK for _change_icon_sloc26_1_0
   0DD4 F8 14              3948 	lda	hl,20(sp)
   0DD6 7E                 3949 	ld	a,(hl)
   0DD7 F8 01              3950 	lda	hl,1(sp)
   0DD9 77                 3951 	ld	(hl),a
   0DDA F8 15              3952 	lda	hl,21(sp)
   0DDC 7E                 3953 	ld	a,(hl)
   0DDD F8 02              3954 	lda	hl,2(sp)
   0DDF 77                 3955 	ld	(hl),a
                           3956 ;	paint.c 320
                           3957 ; genPointerGet
                           3958 ; AOP_STK for _change_icon_sloc2_1_0
   0DE0 F8 2D              3959 	lda	hl,45(sp)
   0DE2 5E                 3960 	ld	e,(hl)
   0DE3 23                 3961 	inc	hl
   0DE4 56                 3962 	ld	d,(hl)
   0DE5 1A                 3963 	ld	a,(de)
                           3964 ; genPlus
                           3965 ; AOP_STK for _change_icon_y_1_1
                           3966 ;	genPlusIncr failed
   0DE6 F8 33              3967 	lda	hl,51(sp)
   0DE8 86                 3968 	add	a,(hl)
   0DE9 4F                 3969 	ld	c,a
                           3970 ;	paint.c 319
                           3971 ; genPointerGet
                           3972 ; AOP_STK for _change_icon_sloc3_1_0
   0DEA F8 2B              3973 	lda	hl,43(sp)
   0DEC 5E                 3974 	ld	e,(hl)
   0DED 23                 3975 	inc	hl
   0DEE 56                 3976 	ld	d,(hl)
   0DEF 1A                 3977 	ld	a,(de)
                           3978 ; genPlus
                           3979 ; AOP_STK for _change_icon_x_1_1
                           3980 ; AOP_STK for _change_icon_sloc27_1_0
                           3981 ;	genPlusIncr failed
   0DF0 F8 34              3982 	lda	hl,52(sp)
   0DF2 86                 3983 	add	a,(hl)
   0DF3 F8 00              3984 	lda	hl,0(sp)
   0DF5 77                 3985 	ld	(hl),a
                           3986 ; genIpush
   0DF6 21 00 00           3987 	ld	hl,#0x0000
   0DF9 E5                 3988 	push	hl
                           3989 ; genIpush
                           3990 ; AOP_STK for _change_icon_sloc26_1_0
   0DFA F8 03              3991 	lda	hl,3(sp)
   0DFC 2A                 3992 	ld	a,(hl+)
   0DFD 66                 3993 	ld	h,(hl)
   0DFE 6F                 3994 	ld	l,a
   0DFF E5                 3995 	push	hl
                           3996 ; genIpush
   0E00 79                 3997 	ld	a,c
   0E01 F5                 3998 	push	af
   0E02 33                 3999 	inc	sp
                           4000 ; genIpush
                           4001 ; AOP_STK for _change_icon_sloc27_1_0
   0E03 F8 05              4002 	lda	hl,5(sp)
   0E05 7E                 4003 	ld	a,(hl)
   0E06 F5                 4004 	push	af
   0E07 33                 4005 	inc	sp
                           4006 ; genCall
   0E08 CD 00 00           4007 	call	_switch_data
   0E0B E8 06              4008 	lda	sp,6(sp)
                           4009 ;	paint.c 318
                           4010 ; genPlus
                           4011 ; AOP_STK for _change_icon_y_1_1
                           4012 ; genPlusIncr
                           4013 ;	genPlusIncr failed
   0E0D F8 33              4014 	lda	hl,51(sp)
   0E0F 7E                 4015 	ld	a,(hl)
   0E10 C6 01              4016 	add	a,#0x01
   0E12 47                 4017 	ld	b,a
                           4018 ; genAssign
                           4019 ; AOP_STK for _change_icon_y_1_1
   0E13 70                 4020 	ld	(hl),b
                           4021 ; genGoto
   0E14 C3 AE 0C           4022 	jp	00101$
                           4023 ; genLabel
   0E17                    4024 00107$:
                           4025 ;	paint.c 317
                           4026 ; genPlus
                           4027 ; AOP_STK for _change_icon_x_1_1
                           4028 ; genPlusIncr
   0E17 F8 34              4029 	lda	hl,52(sp)
   0E19 34                 4030 	inc	(hl)
                           4031 ; genGoto
   0E1A C3 70 0C           4032 	jp	00105$
                           4033 ; genLabel
   0E1D                    4034 00109$:
                           4035 ; genEndFunction
   0E1D E8 35              4036 	lda	sp,53(sp)
   0E1F C1                 4037 	pop	bc
   0E20 C9                 4038 	ret
   0E21                    4039 ___change_icon_end:
                           4040 ;	paint.c 327
                           4041 ; genLabel
                           4042 ; genFunction
                           4043 ;	---------------------------------
                           4044 ; Function reset_icon
                           4045 ; ---------------------------------
   0E21                    4046 ___reset_icon_start:
   0E21                    4047 _reset_icon:
   0E21 C5                 4048 	push	bc
   0E22 E8 EA              4049 	lda	sp,-22(sp)
                           4050 ;	paint.c 331
                           4051 ; genAssign
                           4052 ; AOP_STK for _reset_icon_x_1_1
   0E24 F8 15              4053 	lda	hl,21(sp)
   0E26 36 00              4054 	ld	(hl),#0x00
                           4055 ; genIpush
   0E28 3E 0A              4056 	ld	a,#0x0A
   0E2A F5                 4057 	push	af
   0E2B 33                 4058 	inc	sp
                           4059 ; genIpush
                           4060 ; AOP_STK for 
   0E2C F8 1B              4061 	lda	hl,27(sp)
   0E2E 7E                 4062 	ld	a,(hl)
   0E2F F5                 4063 	push	af
   0E30 33                 4064 	inc	sp
                           4065 ; genCall
   0E31 CD 00 00           4066 	call	__muluchar
   0E34 43                 4067 	ld	b,e
   0E35 E8 02              4068 	lda	sp,2(sp)
                           4069 ; genPlus
                           4070 ; AOP_STK for _reset_icon_sloc1_1_0
                           4071 ;	genPlusIncr failed
   0E37 11 FA 00           4072 	ld	de,#_icons + 0
   0E3A 68                 4073 	ld	l,b
   0E3B 26 00              4074 	ld	h,#0x00
   0E3D 19                 4075 	add	hl,de
   0E3E 7D                 4076 	ld	a,l
   0E3F 54                 4077 	ld	d,h
   0E40 F8 10              4078 	lda	hl,16(sp)
   0E42 22                 4079 	ld	(hl+),a
   0E43 72                 4080 	ld	(hl),d
                           4081 ; genPlus
                           4082 ; AOP_STK for _reset_icon_sloc1_1_0
                           4083 ; AOP_STK for _reset_icon_sloc0_1_0
                           4084 ; genPlusIncr
                           4085 ;	genPlusIncr failed
   0E44 2B                 4086 	dec	hl
   0E45 5E                 4087 	ld	e,(hl)
   0E46 23                 4088 	inc	hl
   0E47 56                 4089 	ld	d,(hl)
   0E48 21 03 00           4090 	ld	hl,#0x0003
   0E4B 19                 4091 	add	hl,de
   0E4C 7D                 4092 	ld	a,l
   0E4D 54                 4093 	ld	d,h
   0E4E F8 12              4094 	lda	hl,18(sp)
   0E50 22                 4095 	ld	(hl+),a
   0E51 72                 4096 	ld	(hl),d
                           4097 ; genLabel
   0E52                    4098 00105$:
                           4099 ; genPointerGet
                           4100 ; AOP_STK for _reset_icon_sloc0_1_0
   0E52 F8 12              4101 	lda	hl,18(sp)
   0E54 5E                 4102 	ld	e,(hl)
   0E55 23                 4103 	inc	hl
   0E56 56                 4104 	ld	d,(hl)
   0E57 1A                 4105 	ld	a,(de)
   0E58 4F                 4106 	ld	c,a
                           4107 ; genCmpLt
                           4108 ; AOP_STK for _reset_icon_x_1_1
   0E59 AF                 4109 	xor	a,a
   0E5A 23                 4110 	inc	hl
   0E5B 23                 4111 	inc	hl
   0E5C 7E                 4112 	ld	a,(hl)
   0E5D 99                 4113 	sbc	a,c ; 2
   0E5E D2 21 0F           4114 	jp	nc,00109$
                           4115 ;	paint.c 332
                           4116 ; genAssign
                           4117 ; AOP_STK for _reset_icon_y_1_1
   0E61 2B                 4118 	dec	hl
   0E62 36 00              4119 	ld	(hl),#0x00
                           4120 ; genLeftShift
                           4121 ; AOP_STK for _reset_icon_x_1_1
                           4122 ; AOP_STK for _reset_icon_sloc2_1_0
   0E64 23                 4123 	inc	hl
   0E65 7E                 4124 	ld	a,(hl)
   0E66 87                 4125 	add	a,a
   0E67 F8 0F              4126 	lda	hl,15(sp)
                           4127 ; genPlus
                           4128 ; AOP_STK for _reset_icon_sloc1_1_0
                           4129 ; AOP_STK for _reset_icon_sloc3_1_0
                           4130 ; genPlusIncr
                           4131 ;	genPlusIncr failed
   0E69 22                 4132 	ld	(hl+),a
   0E6A 5E                 4133 	ld	e,(hl)
   0E6B 23                 4134 	inc	hl
   0E6C 56                 4135 	ld	d,(hl)
   0E6D 21 02 00           4136 	ld	hl,#0x0002
   0E70 19                 4137 	add	hl,de
   0E71 7D                 4138 	ld	a,l
   0E72 54                 4139 	ld	d,h
   0E73 F8 0D              4140 	lda	hl,13(sp)
   0E75 22                 4141 	ld	(hl+),a
   0E76 72                 4142 	ld	(hl),d
                           4143 ; genPlus
                           4144 ; AOP_STK for _reset_icon_sloc1_1_0
                           4145 ; AOP_STK for _reset_icon_sloc4_1_0
                           4146 ; genPlusIncr
                           4147 ;	genPlusIncr failed
   0E77 23                 4148 	inc	hl
   0E78 23                 4149 	inc	hl
   0E79 5E                 4150 	ld	e,(hl)
   0E7A 23                 4151 	inc	hl
   0E7B 56                 4152 	ld	d,(hl)
   0E7C 21 01 00           4153 	ld	hl,#0x0001
   0E7F 19                 4154 	add	hl,de
   0E80 7D                 4155 	ld	a,l
   0E81 54                 4156 	ld	d,h
   0E82 F8 0B              4157 	lda	hl,11(sp)
   0E84 22                 4158 	ld	(hl+),a
   0E85 72                 4159 	ld	(hl),d
                           4160 ; genPlus
                           4161 ; AOP_STK for _reset_icon_sloc1_1_0
                           4162 ; AOP_STK for _reset_icon_sloc6_1_0
                           4163 ; genPlusIncr
                           4164 ;	genPlusIncr failed
   0E86 F8 10              4165 	lda	hl,16(sp)
   0E88 5E                 4166 	ld	e,(hl)
   0E89 23                 4167 	inc	hl
   0E8A 56                 4168 	ld	d,(hl)
   0E8B 21 04 00           4169 	ld	hl,#0x0004
   0E8E 19                 4170 	add	hl,de
   0E8F 7D                 4171 	ld	a,l
   0E90 54                 4172 	ld	d,h
   0E91 F8 08              4173 	lda	hl,8(sp)
   0E93 22                 4174 	ld	(hl+),a
   0E94 72                 4175 	ld	(hl),d
                           4176 ; genLabel
   0E95                    4177 00101$:
                           4178 ; genPointerGet
                           4179 ; AOP_STK for _reset_icon_sloc6_1_0
                           4180 ; AOP_STK for _reset_icon_sloc5_1_0
   0E95 F8 08              4181 	lda	hl,8(sp)
   0E97 5E                 4182 	ld	e,(hl)
   0E98 23                 4183 	inc	hl
   0E99 56                 4184 	ld	d,(hl)
   0E9A 1A                 4185 	ld	a,(de)
   0E9B 23                 4186 	inc	hl
   0E9C 77                 4187 	ld	(hl),a
                           4188 ; genCmpLt
                           4189 ; AOP_STK for _reset_icon_y_1_1
                           4190 ; AOP_STK for _reset_icon_sloc5_1_0
                           4191 ; AOP_STK for _reset_icon_sloc7_1_0
   0E9D AF                 4192 	xor	a,a
   0E9E F8 14              4193 	lda	hl,20(sp)
   0EA0 7E                 4194 	ld	a,(hl)
   0EA1 F8 0A              4195 	lda	hl,10(sp)
   0EA3 9E                 4196 	sbc	a,(hl) ; 2
   0EA4 3E 00              4197 	ld	a,#0x00
   0EA6 17                 4198 	rla
   0EA7 F8 07              4199 	lda	hl,7(sp)
   0EA9 77                 4200 	ld	(hl),a
                           4201 ; genIfx
                           4202 ; AOP_STK for _reset_icon_sloc7_1_0
                           4203 ; Removed redundent or a,a
   0EAA AF                 4204 	xor	a,a
   0EAB B6                 4205 	or	a,(hl)
   0EAC CA 1B 0F           4206 	jp	z,00107$
                           4207 ;	paint.c 335
                           4208 ; genPointerGet
                           4209 ; AOP_STK for _reset_icon_sloc1_1_0
   0EAF F8 10              4210 	lda	hl,16(sp)
   0EB1 5E                 4211 	ld	e,(hl)
   0EB2 23                 4212 	inc	hl
   0EB3 56                 4213 	ld	d,(hl)
   0EB4 1A                 4214 	ld	a,(de)
                           4215 ; genPlus
                           4216 ; AOP_STK for _reset_icon_sloc2_1_0
                           4217 ;	genPlusIncr failed
   0EB5 2B                 4218 	dec	hl
   0EB6 2B                 4219 	dec	hl
   0EB7 86                 4220 	add	a,(hl)
                           4221 ; genPlus
                           4222 ; AOP_STK for _reset_icon_y_1_1
                           4223 ; AOP_STK for _reset_icon_sloc8_1_0
                           4224 ;	genPlusIncr failed
   0EB8 F8 14              4225 	lda	hl,20(sp)
   0EBA 86                 4226 	add	a,(hl)
   0EBB F8 06              4227 	lda	hl,6(sp)
   0EBD 77                 4228 	ld	(hl),a
                           4229 ; genLeftShift
                           4230 ; AOP_STK for _reset_icon_sloc8_1_0
                           4231 ; AOP_STK for _reset_icon_sloc10_1_0
   0EBE 7E                 4232 	ld	a,(hl)
   0EBF CB 17              4233 	rl	a
   0EC1 CB 17              4234 	rl	a
   0EC3 CB 17              4235 	rl	a
   0EC5 CB 17              4236 	rl	a
   0EC7 E6 F0              4237 	and	a,#0xF0
   0EC9 F8 03              4238 	lda	hl,3(sp)
   0ECB 77                 4239 	ld	(hl),a
                           4240 ; genPlus
                           4241 ; AOP_STK for _reset_icon_sloc10_1_0
                           4242 ; AOP_STK for _reset_icon_sloc9_1_0
                           4243 ;	genPlusIncr failed
   0ECC 11 00 00           4244 	ld	de,#_data_buffer + 0
   0ECF 6E                 4245 	ld	l,(hl)
   0ED0 26 00              4246 	ld	h,#0x00
   0ED2 19                 4247 	add	hl,de
   0ED3 7D                 4248 	ld	a,l
   0ED4 54                 4249 	ld	d,h
   0ED5 F8 04              4250 	lda	hl,4(sp)
   0ED7 22                 4251 	ld	(hl+),a
   0ED8 72                 4252 	ld	(hl),d
                           4253 ; genCast
                           4254 ; AOP_STK for _reset_icon_sloc9_1_0
                           4255 ; AOP_STK for _reset_icon_sloc11_1_0
   0ED9 2B                 4256 	dec	hl
   0EDA 7E                 4257 	ld	a,(hl)
   0EDB F8 01              4258 	lda	hl,1(sp)
   0EDD 77                 4259 	ld	(hl),a
   0EDE F8 05              4260 	lda	hl,5(sp)
   0EE0 7E                 4261 	ld	a,(hl)
   0EE1 F8 02              4262 	lda	hl,2(sp)
   0EE3 77                 4263 	ld	(hl),a
                           4264 ;	paint.c 334
                           4265 ; genPointerGet
                           4266 ; AOP_STK for _reset_icon_sloc3_1_0
   0EE4 F8 0D              4267 	lda	hl,13(sp)
   0EE6 5E                 4268 	ld	e,(hl)
   0EE7 23                 4269 	inc	hl
   0EE8 56                 4270 	ld	d,(hl)
   0EE9 1A                 4271 	ld	a,(de)
                           4272 ; genPlus
                           4273 ; AOP_STK for _reset_icon_y_1_1
                           4274 ;	genPlusIncr failed
   0EEA F8 14              4275 	lda	hl,20(sp)
   0EEC 86                 4276 	add	a,(hl)
   0EED 4F                 4277 	ld	c,a
                           4278 ;	paint.c 333
                           4279 ; genPointerGet
                           4280 ; AOP_STK for _reset_icon_sloc4_1_0
   0EEE F8 0B              4281 	lda	hl,11(sp)
   0EF0 5E                 4282 	ld	e,(hl)
   0EF1 23                 4283 	inc	hl
   0EF2 56                 4284 	ld	d,(hl)
   0EF3 1A                 4285 	ld	a,(de)
                           4286 ; genPlus
                           4287 ; AOP_STK for _reset_icon_x_1_1
                           4288 ; AOP_STK for _reset_icon_sloc12_1_0
                           4289 ;	genPlusIncr failed
   0EF4 F8 15              4290 	lda	hl,21(sp)
   0EF6 86                 4291 	add	a,(hl)
   0EF7 F8 00              4292 	lda	hl,0(sp)
   0EF9 77                 4293 	ld	(hl),a
                           4294 ; genIpush
   0EFA 21 00 00           4295 	ld	hl,#0x0000
   0EFD E5                 4296 	push	hl
                           4297 ; genIpush
                           4298 ; AOP_STK for _reset_icon_sloc11_1_0
   0EFE F8 03              4299 	lda	hl,3(sp)
   0F00 2A                 4300 	ld	a,(hl+)
   0F01 66                 4301 	ld	h,(hl)
   0F02 6F                 4302 	ld	l,a
   0F03 E5                 4303 	push	hl
                           4304 ; genIpush
   0F04 79                 4305 	ld	a,c
   0F05 F5                 4306 	push	af
   0F06 33                 4307 	inc	sp
                           4308 ; genIpush
                           4309 ; AOP_STK for _reset_icon_sloc12_1_0
   0F07 F8 05              4310 	lda	hl,5(sp)
   0F09 7E                 4311 	ld	a,(hl)
   0F0A F5                 4312 	push	af
   0F0B 33                 4313 	inc	sp
                           4314 ; genCall
   0F0C CD 00 00           4315 	call	_switch_data
   0F0F E8 06              4316 	lda	sp,6(sp)
                           4317 ;	paint.c 332
                           4318 ; genPlus
                           4319 ; AOP_STK for _reset_icon_y_1_1
                           4320 ; genPlusIncr
                           4321 ;	genPlusIncr failed
   0F11 F8 14              4322 	lda	hl,20(sp)
   0F13 7E                 4323 	ld	a,(hl)
   0F14 C6 01              4324 	add	a,#0x01
   0F16 47                 4325 	ld	b,a
                           4326 ; genAssign
                           4327 ; AOP_STK for _reset_icon_y_1_1
   0F17 70                 4328 	ld	(hl),b
                           4329 ; genGoto
   0F18 C3 95 0E           4330 	jp	00101$
                           4331 ; genLabel
   0F1B                    4332 00107$:
                           4333 ;	paint.c 331
                           4334 ; genPlus
                           4335 ; AOP_STK for _reset_icon_x_1_1
                           4336 ; genPlusIncr
   0F1B F8 15              4337 	lda	hl,21(sp)
   0F1D 34                 4338 	inc	(hl)
                           4339 ; genGoto
   0F1E C3 52 0E           4340 	jp	00105$
                           4341 ; genLabel
   0F21                    4342 00109$:
                           4343 ; genEndFunction
   0F21 E8 16              4344 	lda	sp,22(sp)
   0F23 C1                 4345 	pop	bc
   0F24 C9                 4346 	ret
   0F25                    4347 ___reset_icon_end:
                           4348 ;	paint.c 339
                           4349 ; genLabel
                           4350 ; genFunction
                           4351 ;	---------------------------------
                           4352 ; Function splash
                           4353 ; ---------------------------------
   0F25                    4354 ___splash_start:
   0F25                    4355 _splash:
   0F25 C5                 4356 	push	bc
   0F26 E8 FE              4357 	lda	sp,-2(sp)
                           4358 ;	paint.c 343
                           4359 ; genAssign
                           4360 ; AOP_HL for _cursor_x
   0F28 21 05 03           4361 	ld	hl,#_cursor_x + 0
   0F2B 36 28              4362 	ld	(hl),#0x28
                           4363 ;	paint.c 344
                           4364 ; genAssign
                           4365 ; AOP_HL for _cursor_y
   0F2D 21 06 03           4366 	ld	hl,#_cursor_y + 0
   0F30 36 32              4367 	ld	(hl),#0x32
                           4368 ;	paint.c 345
                           4369 ; genAssign
                           4370 ; AOP_HL for _current_cursor
   0F32 21 03 03           4371 	ld	hl,#_current_cursor + 0
   0F35 36 01              4372 	ld	(hl),#0x01
                           4373 ;	paint.c 346
                           4374 ; genCall
   0F37 CD 00 00           4375 	call	_set_cursor
                           4376 ;	paint.c 347
                           4377 ; genCall
   0F3A CD 24 09           4378 	call	_move_cursor
                           4379 ;	paint.c 348
                           4380 ; genOr
                           4381 ; AOP_SFR for _LCDC_REG
                           4382 ; Type res[4] = l[4]&r[1]
                           4383 ; Size res[1] = l[1]&r[1]
   0F3D F0 00              4384 	ldh	a,(_LCDC_REG+0) ; x
   0F3F F6 02              4385 	or	a,#0x02
   0F41 E0 00              4386 	ldh	(_LCDC_REG+0),a
                           4387 ; genLabel
   0F43                    4388 00101$:
                           4389 ;	paint.c 350
                           4390 ; genCmpLt
                           4391 ; AOP_HL for _cursor_x
   0F43 21 05 03           4392 	ld	hl,#_cursor_x + 0
   0F46 7E                 4393 	ld	a,(hl)
   0F47 FE 78              4394 	cp	#0x78
   0F49 D2 72 0F           4395 	jp	nc,00105$
                           4396 ;	paint.c 351
                           4397 ; genCall
   0F4C CD 00 00           4398 	call	_wait_vbl_done
                           4399 ;	paint.c 352
                           4400 ; genCall
   0F4F CD 24 09           4401 	call	_move_cursor
                           4402 ;	paint.c 353
                           4403 ; genIpush
   0F52 3E 00              4404 	ld	a,#0x00
   0F54 F5                 4405 	push	af
   0F55 33                 4406 	inc	sp
                           4407 ; genIpush
   0F56 3E 03              4408 	ld	a,#0x03
   0F58 F5                 4409 	push	af
   0F59 33                 4410 	inc	sp
                           4411 ; genIpush
                           4412 ; AOP_HL for _cursor_y
   0F5A 21 06 03           4413 	ld	hl,#_cursor_y + 0
   0F5D 7E                 4414 	ld	a,(hl)
   0F5E F5                 4415 	push	af
   0F5F 33                 4416 	inc	sp
                           4417 ; genIpush
                           4418 ; AOP_HL for _cursor_x
   0F60 21 05 03           4419 	ld	hl,#_cursor_x + 0
   0F63 7E                 4420 	ld	a,(hl)
   0F64 F5                 4421 	push	af
   0F65 33                 4422 	inc	sp
                           4423 ; genCall
   0F66 CD 00 00           4424 	call	_plot
   0F69 E8 04              4425 	lda	sp,4(sp)
                           4426 ;	paint.c 350
                           4427 ; genPlus
                           4428 ; AOP_HL for _cursor_x
                           4429 ; genPlusIncr
   0F6B 21 05 03           4430 	ld	hl,#_cursor_x + 0
   0F6E 34                 4431 	inc	(hl)
                           4432 ; genGoto
   0F6F C3 43 0F           4433 	jp	00101$
                           4434 ; genLabel
   0F72                    4435 00105$:
                           4436 ;	paint.c 355
                           4437 ; genCmpLt
                           4438 ; AOP_HL for _cursor_y
   0F72 21 06 03           4439 	ld	hl,#_cursor_y + 0
   0F75 7E                 4440 	ld	a,(hl)
   0F76 FE 5E              4441 	cp	#0x5E
   0F78 D2 A1 0F           4442 	jp	nc,00109$
                           4443 ;	paint.c 356
                           4444 ; genCall
   0F7B CD 00 00           4445 	call	_wait_vbl_done
                           4446 ;	paint.c 357
                           4447 ; genCall
   0F7E CD 24 09           4448 	call	_move_cursor
                           4449 ;	paint.c 358
                           4450 ; genIpush
   0F81 3E 00              4451 	ld	a,#0x00
   0F83 F5                 4452 	push	af
   0F84 33                 4453 	inc	sp
                           4454 ; genIpush
   0F85 3E 03              4455 	ld	a,#0x03
   0F87 F5                 4456 	push	af
   0F88 33                 4457 	inc	sp
                           4458 ; genIpush
                           4459 ; AOP_HL for _cursor_y
   0F89 21 06 03           4460 	ld	hl,#_cursor_y + 0
   0F8C 7E                 4461 	ld	a,(hl)
   0F8D F5                 4462 	push	af
   0F8E 33                 4463 	inc	sp
                           4464 ; genIpush
                           4465 ; AOP_HL for _cursor_x
   0F8F 21 05 03           4466 	ld	hl,#_cursor_x + 0
   0F92 7E                 4467 	ld	a,(hl)
   0F93 F5                 4468 	push	af
   0F94 33                 4469 	inc	sp
                           4470 ; genCall
   0F95 CD 00 00           4471 	call	_plot
   0F98 E8 04              4472 	lda	sp,4(sp)
                           4473 ;	paint.c 355
                           4474 ; genPlus
                           4475 ; AOP_HL for _cursor_y
                           4476 ; genPlusIncr
   0F9A 21 06 03           4477 	ld	hl,#_cursor_y + 0
   0F9D 34                 4478 	inc	(hl)
                           4479 ; genGoto
   0F9E C3 72 0F           4480 	jp	00105$
                           4481 ; genLabel
   0FA1                    4482 00109$:
                           4483 ;	paint.c 360
                           4484 ; genCmpGt
                           4485 ; AOP_HL for _cursor_x
   0FA1 AF                 4486 	xor	a,a
   0FA2 3E 28              4487 	ld	a,#0x28
   0FA4 21 05 03           4488 	ld	hl,#_cursor_x + 0
   0FA7 9E                 4489 	sbc	a,(hl) ; 2
   0FA8 D2 D1 0F           4490 	jp	nc,00113$
                           4491 ;	paint.c 361
                           4492 ; genCall
   0FAB CD 00 00           4493 	call	_wait_vbl_done
                           4494 ;	paint.c 362
                           4495 ; genCall
   0FAE CD 24 09           4496 	call	_move_cursor
                           4497 ;	paint.c 363
                           4498 ; genIpush
   0FB1 3E 00              4499 	ld	a,#0x00
   0FB3 F5                 4500 	push	af
   0FB4 33                 4501 	inc	sp
                           4502 ; genIpush
   0FB5 3E 03              4503 	ld	a,#0x03
   0FB7 F5                 4504 	push	af
   0FB8 33                 4505 	inc	sp
                           4506 ; genIpush
                           4507 ; AOP_HL for _cursor_y
   0FB9 21 06 03           4508 	ld	hl,#_cursor_y + 0
   0FBC 7E                 4509 	ld	a,(hl)
   0FBD F5                 4510 	push	af
   0FBE 33                 4511 	inc	sp
                           4512 ; genIpush
                           4513 ; AOP_HL for _cursor_x
   0FBF 21 05 03           4514 	ld	hl,#_cursor_x + 0
   0FC2 7E                 4515 	ld	a,(hl)
   0FC3 F5                 4516 	push	af
   0FC4 33                 4517 	inc	sp
                           4518 ; genCall
   0FC5 CD 00 00           4519 	call	_plot
   0FC8 E8 04              4520 	lda	sp,4(sp)
                           4521 ;	paint.c 360
                           4522 ; genMinus
                           4523 ; AOP_HL for _cursor_x
   0FCA 21 05 03           4524 	ld	hl,#_cursor_x + 0
   0FCD 35                 4525 	dec	(hl)
                           4526 ; genGoto
   0FCE C3 A1 0F           4527 	jp	00109$
                           4528 ; genLabel
   0FD1                    4529 00113$:
                           4530 ;	paint.c 365
                           4531 ; genCmpGt
                           4532 ; AOP_HL for _cursor_y
   0FD1 AF                 4533 	xor	a,a
   0FD2 3E 32              4534 	ld	a,#0x32
   0FD4 21 06 03           4535 	ld	hl,#_cursor_y + 0
   0FD7 9E                 4536 	sbc	a,(hl) ; 2
   0FD8 D2 01 10           4537 	jp	nc,00116$
                           4538 ;	paint.c 366
                           4539 ; genCall
   0FDB CD 00 00           4540 	call	_wait_vbl_done
                           4541 ;	paint.c 367
                           4542 ; genCall
   0FDE CD 24 09           4543 	call	_move_cursor
                           4544 ;	paint.c 368
                           4545 ; genIpush
   0FE1 3E 00              4546 	ld	a,#0x00
   0FE3 F5                 4547 	push	af
   0FE4 33                 4548 	inc	sp
                           4549 ; genIpush
   0FE5 3E 03              4550 	ld	a,#0x03
   0FE7 F5                 4551 	push	af
   0FE8 33                 4552 	inc	sp
                           4553 ; genIpush
                           4554 ; AOP_HL for _cursor_y
   0FE9 21 06 03           4555 	ld	hl,#_cursor_y + 0
   0FEC 7E                 4556 	ld	a,(hl)
   0FED F5                 4557 	push	af
   0FEE 33                 4558 	inc	sp
                           4559 ; genIpush
                           4560 ; AOP_HL for _cursor_x
   0FEF 21 05 03           4561 	ld	hl,#_cursor_x + 0
   0FF2 7E                 4562 	ld	a,(hl)
   0FF3 F5                 4563 	push	af
   0FF4 33                 4564 	inc	sp
                           4565 ; genCall
   0FF5 CD 00 00           4566 	call	_plot
   0FF8 E8 04              4567 	lda	sp,4(sp)
                           4568 ;	paint.c 365
                           4569 ; genMinus
                           4570 ; AOP_HL for _cursor_y
   0FFA 21 06 03           4571 	ld	hl,#_cursor_y + 0
   0FFD 35                 4572 	dec	(hl)
                           4573 ; genGoto
   0FFE C3 D1 0F           4574 	jp	00113$
                           4575 ; genLabel
   1001                    4576 00116$:
                           4577 ;	paint.c 370
                           4578 ; genAssign
                           4579 ; AOP_HL for _cursor_x
   1001 21 05 03           4580 	ld	hl,#_cursor_x + 0
   1004 36 50              4581 	ld	(hl),#0x50
                           4582 ;	paint.c 371
                           4583 ; genAssign
                           4584 ; AOP_HL for _cursor_y
   1006 21 06 03           4585 	ld	hl,#_cursor_y + 0
   1009 36 48              4586 	ld	(hl),#0x48
                           4587 ;	paint.c 372
                           4588 ; genAssign
                           4589 ; AOP_HL for _current_cursor
   100B 21 03 03           4590 	ld	hl,#_current_cursor + 0
   100E 36 03              4591 	ld	(hl),#0x03
                           4592 ;	paint.c 373
                           4593 ; genCall
   1010 CD 00 00           4594 	call	_set_cursor
                           4595 ;	paint.c 374
                           4596 ; genCall
   1013 CD 24 09           4597 	call	_move_cursor
                           4598 ;	paint.c 376
                           4599 ; genAssign
                           4600 ; AOP_STK for _splash_y_1_1
   1016 F8 01              4601 	lda	hl,1(sp)
   1018 36 33              4602 	ld	(hl),#0x33
                           4603 ; genLabel
   101A                    4604 00121$:
                           4605 ; genCmpLt
                           4606 ; AOP_STK for _splash_y_1_1
   101A F8 01              4607 	lda	hl,1(sp)
   101C 7E                 4608 	ld	a,(hl)
   101D FE 5E              4609 	cp	#0x5E
   101F D2 54 10           4610 	jp	nc,00125$
                           4611 ;	paint.c 377
                           4612 ; genAssign
   1022 06 29              4613 	ld	b,#0x29
                           4614 ; genLabel
   1024                    4615 00117$:
                           4616 ; genCmpLt
                           4617 ; AOP_STK for _splash_sloc0_1_0
   1024 78                 4618 	ld	a,b
   1025 FE 78              4619 	cp	#0x78
   1027 3E 00              4620 	ld	a,#0x00
   1029 17                 4621 	rla
   102A F8 00              4622 	lda	hl,0(sp)
   102C 77                 4623 	ld	(hl),a
                           4624 ; genIfx
                           4625 ; AOP_STK for _splash_sloc0_1_0
                           4626 ; Removed redundent or a,a
   102D AF                 4627 	xor	a,a
   102E B6                 4628 	or	a,(hl)
   102F CA 4E 10           4629 	jp	z,00123$
                           4630 ;	paint.c 378
                           4631 ; genIpush
   1032 3E 00              4632 	ld	a,#0x00
   1034 F5                 4633 	push	af
   1035 33                 4634 	inc	sp
                           4635 ; genIpush
   1036 3E 01              4636 	ld	a,#0x01
   1038 F5                 4637 	push	af
   1039 33                 4638 	inc	sp
                           4639 ; genIpush
                           4640 ; AOP_STK for _splash_y_1_1
   103A 23                 4641 	inc	hl
   103B 7E                 4642 	ld	a,(hl)
   103C F5                 4643 	push	af
   103D 33                 4644 	inc	sp
                           4645 ; genIpush
   103E 78                 4646 	ld	a,b
   103F F5                 4647 	push	af
   1040 33                 4648 	inc	sp
                           4649 ; genCall
   1041 CD 00 00           4650 	call	_plot
   1044 E8 04              4651 	lda	sp,4(sp)
                           4652 ;	paint.c 377
                           4653 ; genPlus
                           4654 ; genPlusIncr
                           4655 ;	genPlusIncr failed
   1046 78                 4656 	ld	a,b
   1047 C6 01              4657 	add	a,#0x01
   1049 4F                 4658 	ld	c,a
                           4659 ; genAssign
   104A 41                 4660 	ld	b,c
                           4661 ; genGoto
   104B C3 24 10           4662 	jp	00117$
                           4663 ; genLabel
   104E                    4664 00123$:
                           4665 ;	paint.c 376
                           4666 ; genPlus
                           4667 ; AOP_STK for _splash_y_1_1
                           4668 ; genPlusIncr
   104E F8 01              4669 	lda	hl,1(sp)
   1050 34                 4670 	inc	(hl)
                           4671 ; genGoto
   1051 C3 1A 10           4672 	jp	00121$
                           4673 ; genLabel
   1054                    4674 00125$:
                           4675 ; genEndFunction
   1054 E8 02              4676 	lda	sp,2(sp)
   1056 C1                 4677 	pop	bc
   1057 C9                 4678 	ret
   1058                    4679 ___splash_end:
                           4680 ;	paint.c 383
                           4681 ; genLabel
                           4682 ; genFunction
                           4683 ;	---------------------------------
                           4684 ; Function menu
                           4685 ; ---------------------------------
   1058                    4686 ___menu_start:
   1058                    4687 _menu:
   1058 C5                 4688 	push	bc
   1059 E8 FB              4689 	lda	sp,-5(sp)
                           4690 ;	paint.c 389
                           4691 ; genAssign
                           4692 ; AOP_STK for _menu_slowdown_1_1
   105B F8 02              4693 	lda	hl,2(sp)
   105D 36 32              4694 	ld	(hl),#0x32
                           4695 ;	paint.c 391
                           4696 ; genAssign
                           4697 ; AOP_STK for _menu_i_1_1
   105F 23                 4698 	inc	hl
   1060 23                 4699 	inc	hl
   1061 36 00              4700 	ld	(hl),#0x00
                           4701 ; genLabel
   1063                    4702 00137$:
                           4703 ; genCmpLt
                           4704 ; AOP_STK for _menu_i_1_1
   1063 F8 04              4705 	lda	hl,4(sp)
   1065 7E                 4706 	ld	a,(hl)
   1066 FE 12              4707 	cp	#0x12
   1068 D2 CD 10           4708 	jp	nc,00140$
                           4709 ;	paint.c 393
                           4710 ; genCmpEq
                           4711 ; AOP_STK for _menu_i_1_1
                           4712 ; AOP_HL for _current_tool
                           4713 ; AOP_STK for _menu_sloc0_1_0
   106B 21 00 03           4714 	ld	hl,#_current_tool + 0
   106E 7E                 4715 	ld	a,(hl)
   106F F8 04              4716 	lda	hl,4(sp)
   1071 BE                 4717 	cp	(hl) ; 5
   1072 20 04              4718 	jr	nz,00170$
   1074 3E 01              4719 	ld	a,#0x01
   1076 18 01              4720 	jr	00171$
   1078                    4721 00170$:
   1078 AF                 4722 	xor	a,a
   1079                    4723 00171$:
   1079 F8 00              4724 	lda	hl,0(sp)
   107B 77                 4725 	ld	(hl),a
                           4726 ;	paint.c 394
                           4727 ; genPlus
                           4728 ; AOP_HL for _current_color
                           4729 ; genPlusIncr
                           4730 ;	genPlusIncr failed
   107C 21 01 03           4731 	ld	hl,#_current_color + 0
   107F 7E                 4732 	ld	a,(hl)
   1080 C6 0A              4733 	add	a,#0x0A
                           4734 ; genCmpEq
                           4735 ; AOP_STK for _menu_i_1_1
   1082 F8 04              4736 	lda	hl,4(sp)
   1084 BE                 4737 	cp	(hl) ; 5
   1085 20 04              4738 	jr	nz,00172$
   1087 3E 01              4739 	ld	a,#0x01
   1089 18 01              4740 	jr	00173$
   108B                    4741 00172$:
   108B AF                 4742 	xor	a,a
   108C                    4743 00173$:
   108C 4F                 4744 	ld	c,a
                           4745 ; genOrOp
                           4746 ; AOP_STK for _menu_sloc0_1_0
   108D AF                 4747 	xor	a,a
   108E F8 00              4748 	lda	hl,0(sp)
   1090 B6                 4749 	or	a,(hl)
   1091 20 02              4750 	jr	nz,00174$
   1093 AF                 4751 	xor	a,a
   1094 B1                 4752 	or	a,c
   1095                    4753 00174$:
   1095 28 02              4754 	jr	z,00175$
   1097 3E 01              4755 	ld	a,#0x01
   1099                    4756 00175$:
   1099 F8 00              4757 	lda	hl,0(sp)
   109B 77                 4758 	ld	(hl),a
                           4759 ;	paint.c 395
                           4760 ; genPlus
                           4761 ; AOP_HL for _current_mode
                           4762 ; genPlusIncr
                           4763 ;	genPlusIncr failed
   109C 21 02 03           4764 	ld	hl,#_current_mode + 0
   109F 7E                 4765 	ld	a,(hl)
   10A0 C6 0E              4766 	add	a,#0x0E
                           4767 ; genCmpEq
                           4768 ; AOP_STK for _menu_i_1_1
   10A2 F8 04              4769 	lda	hl,4(sp)
   10A4 BE                 4770 	cp	(hl) ; 5
   10A5 20 04              4771 	jr	nz,00176$
   10A7 3E 01              4772 	ld	a,#0x01
   10A9 18 01              4773 	jr	00177$
   10AB                    4774 00176$:
   10AB AF                 4775 	xor	a,a
   10AC                    4776 00177$:
   10AC 4F                 4777 	ld	c,a
                           4778 ; genOrOp
                           4779 ; AOP_STK for _menu_sloc0_1_0
   10AD AF                 4780 	xor	a,a
   10AE F8 00              4781 	lda	hl,0(sp)
   10B0 B6                 4782 	or	a,(hl)
   10B1 20 02              4783 	jr	nz,00178$
   10B3 AF                 4784 	xor	a,a
   10B4 B1                 4785 	or	a,c
   10B5                    4786 00178$:
   10B5 28 02              4787 	jr	z,00179$
   10B7 3E 01              4788 	ld	a,#0x01
   10B9                    4789 00179$:
   10B9 4F                 4790 	ld	c,a
                           4791 ;	paint.c 392
                           4792 ; genIpush
   10BA 79                 4793 	ld	a,c
   10BB F5                 4794 	push	af
   10BC 33                 4795 	inc	sp
                           4796 ; genIpush
                           4797 ; AOP_STK for _menu_i_1_1
   10BD F8 05              4798 	lda	hl,5(sp)
   10BF 7E                 4799 	ld	a,(hl)
   10C0 F5                 4800 	push	af
   10C1 33                 4801 	inc	sp
                           4802 ; genCall
   10C2 CD AF 0A           4803 	call	_set_icon
   10C5 E8 02              4804 	lda	sp,2(sp)
                           4805 ;	paint.c 391
                           4806 ; genPlus
                           4807 ; AOP_STK for _menu_i_1_1
                           4808 ; genPlusIncr
   10C7 F8 04              4809 	lda	hl,4(sp)
   10C9 34                 4810 	inc	(hl)
                           4811 ; genGoto
   10CA C3 63 10           4812 	jp	00137$
                           4813 ; genLabel
   10CD                    4814 00140$:
                           4815 ;	paint.c 397
                           4816 ; genAssign
                           4817 ; AOP_HL for _current_cursor
                           4818 ; AOP_STK for _menu_cursor_1_1
   10CD 21 03 03           4819 	ld	hl,#_current_cursor + 0
   10D0 7E                 4820 	ld	a,(hl)
   10D1 F8 01              4821 	lda	hl,1(sp)
   10D3 77                 4822 	ld	(hl),a
                           4823 ;	paint.c 398
                           4824 ; genAssign
                           4825 ; AOP_HL for _current_cursor
   10D4 21 03 03           4826 	ld	hl,#_current_cursor + 0
   10D7 36 00              4827 	ld	(hl),#0x00
                           4828 ;	paint.c 399
                           4829 ; genCall
   10D9 CD 00 00           4830 	call	_set_cursor
                           4831 ;	paint.c 400
                           4832 ; genCall
   10DC CD 36 0A           4833 	call	_move_menu_cursor
                           4834 ;	paint.c 401
                           4835 ; genOr
                           4836 ; AOP_SFR for _LCDC_REG
                           4837 ; Type res[4] = l[4]&r[1]
                           4838 ; Size res[1] = l[1]&r[1]
   10DF F0 00              4839 	ldh	a,(_LCDC_REG+0) ; x
   10E1 F6 02              4840 	or	a,#0x02
   10E3 E0 00              4841 	ldh	(_LCDC_REG+0),a
                           4842 ;	paint.c 402
                           4843 ; genCall
   10E5 CD 00 00           4844 	call	_waitpadup
                           4845 ;	paint.c 403
                           4846 ; genLabel
   10E8                    4847 00134$:
                           4848 ;	paint.c 404
                           4849 ; genCall
   10E8 CD 00 00           4850 	call	_wait_vbl_done
                           4851 ;	paint.c 405
                           4852 ; genCall
   10EB CD 00 00           4853 	call	_joypad
                           4854 ; AOP_STK for _menu_key_1_1
   10EE F8 03              4855 	lda	hl,3(sp)
   10F0 73                 4856 	ld	(hl),e
                           4857 ;	paint.c 406
                           4858 ; genAnd
                           4859 ; AOP_STK for _menu_key_1_1
   10F1 7E                 4860 	ld	a,(hl)
   10F2 E6 0F              4861 	and	a,#0x0F
   10F4 20 03              4862 	jr	nz,00180$
   10F6 C3 E8 11           4863 	jp	00114$
   10F9                    4864 00180$:
                           4865 ;	paint.c 407
                           4866 ; genAnd
                           4867 ; AOP_STK for _menu_key_1_1
   10F9 F8 03              4868 	lda	hl,3(sp)
   10FB 7E                 4869 	ld	a,(hl)
   10FC CB 57              4870 	bit	2,a
   10FE CA 27 11           4871 	jp	z,00102$
                           4872 ;	paint.c 408
                           4873 ; genIpush
   1101 3E 0A              4874 	ld	a,#0x0A
   1103 F5                 4875 	push	af
   1104 33                 4876 	inc	sp
                           4877 ; genIpush
                           4878 ; AOP_HL for _menu_cursor_pos
   1105 21 04 03           4879 	ld	hl,#_menu_cursor_pos + 0
   1108 7E                 4880 	ld	a,(hl)
   1109 F5                 4881 	push	af
   110A 33                 4882 	inc	sp
                           4883 ; genCall
   110B CD 00 00           4884 	call	__muluchar
   110E 4B                 4885 	ld	c,e
   110F E8 02              4886 	lda	sp,2(sp)
                           4887 ; genPlus
                           4888 ;	genPlusIncr failed
   1111 3E FA              4889 	ld	a,#<_icons
   1113 81                 4890 	add	a,c
   1114 4F                 4891 	ld	c,a
   1115 3E 00              4892 	ld	a,#>_icons
   1117 CE 00              4893 	adc	a,#0x00
   1119 47                 4894 	ld	b,a
                           4895 ; genPlus
                           4896 ; genPlusIncr
                           4897 ;	genPlusIncr failed
   111A 79                 4898 	ld	a,c
   111B C6 05              4899 	add	a,#0x05
   111D 5F                 4900 	ld	e,a
   111E 78                 4901 	ld	a,b
   111F CE 00              4902 	adc	a,#0x00
   1121 57                 4903 	ld	d,a
                           4904 ; genPointerGet
                           4905 ; AOP_HL for _menu_cursor_pos
   1122 1A                 4906 	ld	a,(de)
   1123 21 04 03           4907 	ld	hl,#_menu_cursor_pos + 0
   1126 77                 4908 	ld	(hl),a
                           4909 ; genLabel
   1127                    4910 00102$:
                           4911 ;	paint.c 409
                           4912 ; genAnd
                           4913 ; AOP_STK for _menu_key_1_1
   1127 F8 03              4914 	lda	hl,3(sp)
   1129 7E                 4915 	ld	a,(hl)
   112A CB 5F              4916 	bit	3,a
   112C CA 55 11           4917 	jp	z,00104$
                           4918 ;	paint.c 410
                           4919 ; genIpush
   112F 3E 0A              4920 	ld	a,#0x0A
   1131 F5                 4921 	push	af
   1132 33                 4922 	inc	sp
                           4923 ; genIpush
                           4924 ; AOP_HL for _menu_cursor_pos
   1133 21 04 03           4925 	ld	hl,#_menu_cursor_pos + 0
   1136 7E                 4926 	ld	a,(hl)
   1137 F5                 4927 	push	af
   1138 33                 4928 	inc	sp
                           4929 ; genCall
   1139 CD 00 00           4930 	call	__muluchar
   113C 4B                 4931 	ld	c,e
   113D E8 02              4932 	lda	sp,2(sp)
                           4933 ; genPlus
                           4934 ;	genPlusIncr failed
   113F 3E FA              4935 	ld	a,#<_icons
   1141 81                 4936 	add	a,c
   1142 4F                 4937 	ld	c,a
   1143 3E 00              4938 	ld	a,#>_icons
   1145 CE 00              4939 	adc	a,#0x00
   1147 47                 4940 	ld	b,a
                           4941 ; genPlus
                           4942 ; genPlusIncr
                           4943 ;	genPlusIncr failed
   1148 79                 4944 	ld	a,c
   1149 C6 06              4945 	add	a,#0x06
   114B 5F                 4946 	ld	e,a
   114C 78                 4947 	ld	a,b
   114D CE 00              4948 	adc	a,#0x00
   114F 57                 4949 	ld	d,a
                           4950 ; genPointerGet
                           4951 ; AOP_HL for _menu_cursor_pos
   1150 1A                 4952 	ld	a,(de)
   1151 21 04 03           4953 	ld	hl,#_menu_cursor_pos + 0
   1154 77                 4954 	ld	(hl),a
                           4955 ; genLabel
   1155                    4956 00104$:
                           4957 ;	paint.c 411
                           4958 ; genAnd
                           4959 ; AOP_STK for _menu_key_1_1
   1155 F8 03              4960 	lda	hl,3(sp)
   1157 7E                 4961 	ld	a,(hl)
   1158 CB 4F              4962 	bit	1,a
   115A CA 83 11           4963 	jp	z,00106$
                           4964 ;	paint.c 412
                           4965 ; genIpush
   115D 3E 0A              4966 	ld	a,#0x0A
   115F F5                 4967 	push	af
   1160 33                 4968 	inc	sp
                           4969 ; genIpush
                           4970 ; AOP_HL for _menu_cursor_pos
   1161 21 04 03           4971 	ld	hl,#_menu_cursor_pos + 0
   1164 7E                 4972 	ld	a,(hl)
   1165 F5                 4973 	push	af
   1166 33                 4974 	inc	sp
                           4975 ; genCall
   1167 CD 00 00           4976 	call	__muluchar
   116A 4B                 4977 	ld	c,e
   116B E8 02              4978 	lda	sp,2(sp)
                           4979 ; genPlus
                           4980 ;	genPlusIncr failed
   116D 3E FA              4981 	ld	a,#<_icons
   116F 81                 4982 	add	a,c
   1170 4F                 4983 	ld	c,a
   1171 3E 00              4984 	ld	a,#>_icons
   1173 CE 00              4985 	adc	a,#0x00
   1175 47                 4986 	ld	b,a
                           4987 ; genPlus
                           4988 ; genPlusIncr
                           4989 ;	genPlusIncr failed
   1176 79                 4990 	ld	a,c
   1177 C6 07              4991 	add	a,#0x07
   1179 5F                 4992 	ld	e,a
   117A 78                 4993 	ld	a,b
   117B CE 00              4994 	adc	a,#0x00
   117D 57                 4995 	ld	d,a
                           4996 ; genPointerGet
                           4997 ; AOP_HL for _menu_cursor_pos
   117E 1A                 4998 	ld	a,(de)
   117F 21 04 03           4999 	ld	hl,#_menu_cursor_pos + 0
   1182 77                 5000 	ld	(hl),a
                           5001 ; genLabel
   1183                    5002 00106$:
                           5003 ;	paint.c 413
                           5004 ; genAnd
                           5005 ; AOP_STK for _menu_key_1_1
   1183 F8 03              5006 	lda	hl,3(sp)
   1185 7E                 5007 	ld	a,(hl)
   1186 CB 47              5008 	bit	0,a
   1188 CA B1 11           5009 	jp	z,00108$
                           5010 ;	paint.c 414
                           5011 ; genIpush
   118B 3E 0A              5012 	ld	a,#0x0A
   118D F5                 5013 	push	af
   118E 33                 5014 	inc	sp
                           5015 ; genIpush
                           5016 ; AOP_HL for _menu_cursor_pos
   118F 21 04 03           5017 	ld	hl,#_menu_cursor_pos + 0
   1192 7E                 5018 	ld	a,(hl)
   1193 F5                 5019 	push	af
   1194 33                 5020 	inc	sp
                           5021 ; genCall
   1195 CD 00 00           5022 	call	__muluchar
   1198 4B                 5023 	ld	c,e
   1199 E8 02              5024 	lda	sp,2(sp)
                           5025 ; genPlus
                           5026 ;	genPlusIncr failed
   119B 3E FA              5027 	ld	a,#<_icons
   119D 81                 5028 	add	a,c
   119E 4F                 5029 	ld	c,a
   119F 3E 00              5030 	ld	a,#>_icons
   11A1 CE 00              5031 	adc	a,#0x00
   11A3 47                 5032 	ld	b,a
                           5033 ; genPlus
                           5034 ; genPlusIncr
                           5035 ;	genPlusIncr failed
   11A4 79                 5036 	ld	a,c
   11A5 C6 08              5037 	add	a,#0x08
   11A7 5F                 5038 	ld	e,a
   11A8 78                 5039 	ld	a,b
   11A9 CE 00              5040 	adc	a,#0x00
   11AB 57                 5041 	ld	d,a
                           5042 ; genPointerGet
                           5043 ; AOP_HL for _menu_cursor_pos
   11AC 1A                 5044 	ld	a,(de)
   11AD 21 04 03           5045 	ld	hl,#_menu_cursor_pos + 0
   11B0 77                 5046 	ld	(hl),a
                           5047 ; genLabel
   11B1                    5048 00108$:
                           5049 ;	paint.c 415
                           5050 ; genCall
   11B1 CD 36 0A           5051 	call	_move_menu_cursor
                           5052 ;	paint.c 416
                           5053 ; genLabel
   11B4                    5054 00110$:
                           5055 ; genIfx
                           5056 ; AOP_STK for _menu_slowdown_1_1
   11B4 AF                 5057 	xor	a,a
   11B5 F8 02              5058 	lda	hl,2(sp)
   11B7 B6                 5059 	or	a,(hl)
   11B8 B7                 5060 	or	a,a
   11B9 CA E1 11           5061 	jp	z,00112$
                           5062 ; genCall
   11BC CD 00 00           5063 	call	_joypad
   11BF 4B                 5064 	ld	c,e
                           5065 ; genCmpEq
                           5066 ; AOP_STK for _menu_key_1_1
                           5067 ; AOP_STK for _menu_sloc0_1_0
   11C0 F8 03              5068 	lda	hl,3(sp)
   11C2 7E                 5069 	ld	a,(hl)
   11C3 B9                 5070 	cp	c ; 4
   11C4 C2 CB 11           5071 	jp	nz,00181$
   11C7 3E 01              5072 	ld	a,#0x01
   11C9 18 01              5073 	jr	00182$
   11CB                    5074 00181$:
   11CB AF                 5075 	xor	a,a
   11CC                    5076 00182$:
   11CC F8 00              5077 	lda	hl,0(sp)
   11CE 77                 5078 	ld	(hl),a
                           5079 ; genIfx
                           5080 ; AOP_STK for _menu_sloc0_1_0
                           5081 ; Removed redundent or a,a
   11CF AF                 5082 	xor	a,a
   11D0 B6                 5083 	or	a,(hl)
   11D1 CA E1 11           5084 	jp	z,00112$
                           5085 ;	paint.c 417
                           5086 ; genCall
   11D4 CD 00 00           5087 	call	_wait_vbl_done
                           5088 ;	paint.c 418
                           5089 ; genMinus
                           5090 ; AOP_STK for _menu_slowdown_1_1
   11D7 F8 02              5091 	lda	hl,2(sp)
   11D9 7E                 5092 	ld	a,(hl)
   11DA C6 FF              5093 	add	a,#0xFF
   11DC 47                 5094 	ld	b,a
                           5095 ; genAssign
                           5096 ; AOP_STK for _menu_slowdown_1_1
   11DD 70                 5097 	ld	(hl),b
                           5098 ; genGoto
   11DE C3 B4 11           5099 	jp	00110$
                           5100 ; genLabel
   11E1                    5101 00112$:
                           5102 ;	paint.c 420
                           5103 ; genAssign
                           5104 ; AOP_STK for _menu_slowdown_1_1
   11E1 F8 02              5105 	lda	hl,2(sp)
   11E3 36 0A              5106 	ld	(hl),#0x0A
                           5107 ; genGoto
   11E5 C3 EC 11           5108 	jp	00115$
                           5109 ; genLabel
   11E8                    5110 00114$:
                           5111 ;	paint.c 422
                           5112 ; genAssign
                           5113 ; AOP_STK for _menu_slowdown_1_1
   11E8 F8 02              5114 	lda	hl,2(sp)
   11EA 36 32              5115 	ld	(hl),#0x32
                           5116 ; genLabel
   11EC                    5117 00115$:
                           5118 ;	paint.c 423
                           5119 ; genAnd
                           5120 ; AOP_STK for _menu_key_1_1
   11EC F8 03              5121 	lda	hl,3(sp)
   11EE 7E                 5122 	ld	a,(hl)
   11EF CB 67              5123 	bit	4,a
   11F1 CA E3 12           5124 	jp	z,00135$
                           5125 ;	paint.c 424
                           5126 ; genCmpGt
                           5127 ; AOP_HL for _menu_cursor_pos
   11F4 AF                 5128 	xor	a,a
   11F5 3E 09              5129 	ld	a,#0x09
   11F7 21 04 03           5130 	ld	hl,#_menu_cursor_pos + 0
   11FA 9E                 5131 	sbc	a,(hl) ; 2
   11FB DA 56 12           5132 	jp	c,00130$
                           5133 ;	paint.c 425
                           5134 ; genCmpEq
                           5135 ; AOP_HL for _menu_cursor_pos
                           5136 ; AOP_HL for _current_tool
   11FE 21 00 03           5137 	ld	hl,#_current_tool + 0
   1201 7E                 5138 	ld	a,(hl)
   1202 21 04 03           5139 	ld	hl,#_menu_cursor_pos + 0
   1205 BE                 5140 	cp	(hl) ; 5
   1206 20 03              5141 	jr	nz,00183$
   1208 C3 E3 12           5142 	jp	00135$
   120B                    5143 00183$:
                           5144 ;	paint.c 426
                           5145 ; genIpush
   120B 3E 00              5146 	ld	a,#0x00
   120D F5                 5147 	push	af
   120E 33                 5148 	inc	sp
                           5149 ; genIpush
                           5150 ; AOP_HL for _current_tool
   120F 21 00 03           5151 	ld	hl,#_current_tool + 0
   1212 7E                 5152 	ld	a,(hl)
   1213 F5                 5153 	push	af
   1214 33                 5154 	inc	sp
                           5155 ; genCall
   1215 CD 3F 0C           5156 	call	_change_icon
   1218 E8 02              5157 	lda	sp,2(sp)
                           5158 ;	paint.c 427
                           5159 ; genAssign
                           5160 ; AOP_HL for _menu_cursor_pos
                           5161 ; AOP_HL for _current_tool
   121A 21 04 03           5162 	ld	hl,#_menu_cursor_pos + 0
   121D 7E                 5163 	ld	a,(hl)
   121E 21 00 03           5164 	ld	hl,#_current_tool + 0
   1221 77                 5165 	ld	(hl),a
                           5166 ;	paint.c 428
                           5167 ; genIpush
   1222 3E 01              5168 	ld	a,#0x01
   1224 F5                 5169 	push	af
   1225 33                 5170 	inc	sp
                           5171 ; genIpush
                           5172 ; AOP_HL for _current_tool
   1226 7E                 5173 	ld	a,(hl)
   1227 F5                 5174 	push	af
   1228 33                 5175 	inc	sp
                           5176 ; genCall
   1229 CD 3F 0C           5177 	call	_change_icon
   122C E8 02              5178 	lda	sp,2(sp)
                           5179 ;	paint.c 429
                           5180 ; genIpush
   122E 3E 0A              5181 	ld	a,#0x0A
   1230 F5                 5182 	push	af
   1231 33                 5183 	inc	sp
                           5184 ; genIpush
                           5185 ; AOP_HL for _current_tool
   1232 21 00 03           5186 	ld	hl,#_current_tool + 0
   1235 7E                 5187 	ld	a,(hl)
   1236 F5                 5188 	push	af
   1237 33                 5189 	inc	sp
                           5190 ; genCall
   1238 CD 00 00           5191 	call	__muluchar
   123B 4B                 5192 	ld	c,e
   123C E8 02              5193 	lda	sp,2(sp)
                           5194 ; genPlus
                           5195 ;	genPlusIncr failed
   123E 3E FA              5196 	ld	a,#<_icons
   1240 81                 5197 	add	a,c
   1241 4F                 5198 	ld	c,a
   1242 3E 00              5199 	ld	a,#>_icons
   1244 CE 00              5200 	adc	a,#0x00
   1246 47                 5201 	ld	b,a
                           5202 ; genPlus
                           5203 ; genPlusIncr
                           5204 ;	genPlusIncr failed
   1247 79                 5205 	ld	a,c
   1248 C6 09              5206 	add	a,#0x09
   124A 5F                 5207 	ld	e,a
   124B 78                 5208 	ld	a,b
   124C CE 00              5209 	adc	a,#0x00
   124E 57                 5210 	ld	d,a
                           5211 ; genPointerGet
                           5212 ; AOP_STK for _menu_cursor_1_1
   124F 1A                 5213 	ld	a,(de)
   1250 F8 01              5214 	lda	hl,1(sp)
   1252 77                 5215 	ld	(hl),a
                           5216 ; genGoto
   1253 C3 E3 12           5217 	jp	00135$
                           5218 ; genLabel
   1256                    5219 00130$:
                           5220 ;	paint.c 431
                           5221 ; genCmpLt
                           5222 ; AOP_HL for _menu_cursor_pos
   1256 21 04 03           5223 	ld	hl,#_menu_cursor_pos + 0
   1259 7E                 5224 	ld	a,(hl)
   125A FE 0A              5225 	cp	#0x0A
   125C DA 9E 12           5226 	jp	c,00126$
                           5227 ; genCmpGt
                           5228 ; AOP_HL for _menu_cursor_pos
   125F AF                 5229 	xor	a,a
   1260 3E 0D              5230 	ld	a,#0x0D
   1262 9E                 5231 	sbc	a,(hl) ; 2
   1263 DA 9E 12           5232 	jp	c,00126$
                           5233 ;	paint.c 432
                           5234 ; genPlus
                           5235 ; AOP_HL for _current_color
                           5236 ; genPlusIncr
                           5237 ;	genPlusIncr failed
   1266 21 01 03           5238 	ld	hl,#_current_color + 0
   1269 7E                 5239 	ld	a,(hl)
   126A C6 0A              5240 	add	a,#0x0A
   126C 4F                 5241 	ld	c,a
                           5242 ; genCmpEq
                           5243 ; AOP_HL for _menu_cursor_pos
   126D 21 04 03           5244 	ld	hl,#_menu_cursor_pos + 0
   1270 7E                 5245 	ld	a,(hl)
   1271 B9                 5246 	cp	c ; 4
                           5247 ; Rule 5
   1272 CA E3 12           5248 	jp	z,00135$
   1275                    5249 00184$:
                           5250 ;	paint.c 433
                           5251 ; genIpush
   1275 3E 00              5252 	ld	a,#0x00
   1277 F5                 5253 	push	af
   1278 33                 5254 	inc	sp
                           5255 ; genIpush
   1279 79                 5256 	ld	a,c
   127A F5                 5257 	push	af
   127B 33                 5258 	inc	sp
                           5259 ; genCall
   127C CD 3F 0C           5260 	call	_change_icon
   127F E8 02              5261 	lda	sp,2(sp)
                           5262 ;	paint.c 434
                           5263 ; genMinus
                           5264 ; AOP_HL for _menu_cursor_pos
                           5265 ; AOP_HL for _current_color
   1281 21 04 03           5266 	ld	hl,#_menu_cursor_pos + 0
   1284 7E                 5267 	ld	a,(hl)
   1285 C6 F6              5268 	add	a,#0xF6
   1287 21 01 03           5269 	ld	hl,#_current_color + 0
   128A 77                 5270 	ld	(hl),a
                           5271 ;	paint.c 435
                           5272 ; genPlus
                           5273 ; AOP_HL for _current_color
                           5274 ; genPlusIncr
                           5275 ;	genPlusIncr failed
   128B 7E                 5276 	ld	a,(hl)
   128C C6 0A              5277 	add	a,#0x0A
   128E 4F                 5278 	ld	c,a
                           5279 ; genIpush
   128F 3E 01              5280 	ld	a,#0x01
   1291 F5                 5281 	push	af
   1292 33                 5282 	inc	sp
                           5283 ; genIpush
   1293 79                 5284 	ld	a,c
   1294 F5                 5285 	push	af
   1295 33                 5286 	inc	sp
                           5287 ; genCall
   1296 CD 3F 0C           5288 	call	_change_icon
   1299 E8 02              5289 	lda	sp,2(sp)
                           5290 ; genGoto
   129B C3 E3 12           5291 	jp	00135$
                           5292 ; genLabel
   129E                    5293 00126$:
                           5294 ;	paint.c 437
                           5295 ; genCmpLt
                           5296 ; AOP_HL for _menu_cursor_pos
   129E 21 04 03           5297 	ld	hl,#_menu_cursor_pos + 0
   12A1 7E                 5298 	ld	a,(hl)
   12A2 FE 0E              5299 	cp	#0x0E
   12A4 DA E3 12           5300 	jp	c,00135$
                           5301 ; genCmpGt
                           5302 ; AOP_HL for _menu_cursor_pos
   12A7 AF                 5303 	xor	a,a
   12A8 3E 11              5304 	ld	a,#0x11
   12AA 9E                 5305 	sbc	a,(hl) ; 2
   12AB DA E3 12           5306 	jp	c,00135$
                           5307 ;	paint.c 438
                           5308 ; genPlus
                           5309 ; AOP_HL for _current_mode
                           5310 ; genPlusIncr
                           5311 ;	genPlusIncr failed
   12AE 21 02 03           5312 	ld	hl,#_current_mode + 0
   12B1 7E                 5313 	ld	a,(hl)
   12B2 C6 0E              5314 	add	a,#0x0E
   12B4 4F                 5315 	ld	c,a
                           5316 ; genCmpEq
                           5317 ; AOP_HL for _menu_cursor_pos
   12B5 21 04 03           5318 	ld	hl,#_menu_cursor_pos + 0
   12B8 7E                 5319 	ld	a,(hl)
   12B9 B9                 5320 	cp	c ; 4
                           5321 ; Rule 5
   12BA CA E3 12           5322 	jp	z,00135$
   12BD                    5323 00185$:
                           5324 ;	paint.c 439
                           5325 ; genIpush
   12BD 3E 00              5326 	ld	a,#0x00
   12BF F5                 5327 	push	af
   12C0 33                 5328 	inc	sp
                           5329 ; genIpush
   12C1 79                 5330 	ld	a,c
   12C2 F5                 5331 	push	af
   12C3 33                 5332 	inc	sp
                           5333 ; genCall
   12C4 CD 3F 0C           5334 	call	_change_icon
   12C7 E8 02              5335 	lda	sp,2(sp)
                           5336 ;	paint.c 440
                           5337 ; genMinus
                           5338 ; AOP_HL for _menu_cursor_pos
                           5339 ; AOP_HL for _current_mode
   12C9 21 04 03           5340 	ld	hl,#_menu_cursor_pos + 0
   12CC 7E                 5341 	ld	a,(hl)
   12CD C6 F2              5342 	add	a,#0xF2
   12CF 21 02 03           5343 	ld	hl,#_current_mode + 0
   12D2 77                 5344 	ld	(hl),a
                           5345 ;	paint.c 441
                           5346 ; genPlus
                           5347 ; AOP_HL for _current_mode
                           5348 ; genPlusIncr
                           5349 ;	genPlusIncr failed
   12D3 7E                 5350 	ld	a,(hl)
   12D4 C6 0E              5351 	add	a,#0x0E
   12D6 4F                 5352 	ld	c,a
                           5353 ; genIpush
   12D7 3E 01              5354 	ld	a,#0x01
   12D9 F5                 5355 	push	af
   12DA 33                 5356 	inc	sp
                           5357 ; genIpush
   12DB 79                 5358 	ld	a,c
   12DC F5                 5359 	push	af
   12DD 33                 5360 	inc	sp
                           5361 ; genCall
   12DE CD 3F 0C           5362 	call	_change_icon
   12E1 E8 02              5363 	lda	sp,2(sp)
                           5364 ; genLabel
   12E3                    5365 00135$:
                           5366 ;	paint.c 445
                           5367 ; genCmpEq
                           5368 ; AOP_STK for _menu_key_1_1
   12E3 F8 03              5369 	lda	hl,3(sp)
   12E5 7E                 5370 	ld	a,(hl) ; 2
   12E6 FE 40              5371 	cp	a,#0x40
   12E8 C2 ED 12           5372 	jp	nz,00186$
   12EB 18 03              5373 	jr	00187$
   12ED                    5374 00186$:
   12ED C3 E8 10           5375 	jp	00134$
   12F0                    5376 00187$:
                           5377 ;	paint.c 446
                           5378 ; genCall
   12F0 CD 00 00           5379 	call	_waitpadup
                           5380 ;	paint.c 447
                           5381 ; genAssign
                           5382 ; AOP_STK for _menu_i_1_1
   12F3 F8 04              5383 	lda	hl,4(sp)
   12F5 36 00              5384 	ld	(hl),#0x00
                           5385 ; genLabel
   12F7                    5386 00141$:
                           5387 ; genCmpLt
                           5388 ; AOP_STK for _menu_i_1_1
   12F7 F8 04              5389 	lda	hl,4(sp)
   12F9 7E                 5390 	ld	a,(hl)
   12FA FE 12              5391 	cp	#0x12
   12FC D2 0D 13           5392 	jp	nc,00144$
                           5393 ;	paint.c 448
                           5394 ; genIpush
                           5395 ; AOP_STK for _menu_i_1_1
   12FF 7E                 5396 	ld	a,(hl)
   1300 F5                 5397 	push	af
   1301 33                 5398 	inc	sp
                           5399 ; genCall
   1302 CD 21 0E           5400 	call	_reset_icon
   1305 E8 01              5401 	lda	sp,1(sp)
                           5402 ;	paint.c 447
                           5403 ; genPlus
                           5404 ; AOP_STK for _menu_i_1_1
                           5405 ; genPlusIncr
   1307 F8 04              5406 	lda	hl,4(sp)
   1309 34                 5407 	inc	(hl)
                           5408 ; genGoto
   130A C3 F7 12           5409 	jp	00141$
                           5410 ; genLabel
   130D                    5411 00144$:
                           5412 ;	paint.c 449
                           5413 ; genAnd
                           5414 ; AOP_SFR for _LCDC_REG
   130D F0 00              5415 	ldh	a,(_LCDC_REG+0) ; x
   130F E6 FD              5416 	and	a,#0xFD
   1311 E0 00              5417 	ldh	(_LCDC_REG+0),a
                           5418 ;	paint.c 450
                           5419 ; genAssign
                           5420 ; AOP_STK for _menu_cursor_1_1
                           5421 ; AOP_HL for _current_cursor
   1313 F8 01              5422 	lda	hl,1(sp)
   1315 7E                 5423 	ld	a,(hl)
   1316 21 03 03           5424 	ld	hl,#_current_cursor + 0
   1319 77                 5425 	ld	(hl),a
                           5426 ; genLabel
   131A                    5427 00145$:
                           5428 ; genEndFunction
   131A E8 05              5429 	lda	sp,5(sp)
   131C C1                 5430 	pop	bc
   131D C9                 5431 	ret
   131E                    5432 ___menu_end:
                           5433 ;	paint.c 453
                           5434 ; genLabel
                           5435 ; genFunction
                           5436 ;	---------------------------------
                           5437 ; Function run
                           5438 ; ---------------------------------
   131E                    5439 ___run_start:
   131E                    5440 _run:
   131E C5                 5441 	push	bc
   131F E8 FB              5442 	lda	sp,-5(sp)
                           5443 ;	paint.c 459
                           5444 ; genAssign
                           5445 ; AOP_STK for _run_slowdown_1_1
   1321 F8 03              5446 	lda	hl,3(sp)
   1323 36 0A              5447 	ld	(hl),#0x0A
                           5448 ;	paint.c 460
                           5449 ; genAssign
                           5450 ; AOP_STK for _run_erased_1_1
   1325 2B                 5451 	dec	hl
   1326 2B                 5452 	dec	hl
   1327 36 00              5453 	ld	(hl),#0x00
                           5454 ; genAssign
                           5455 ; AOP_STK for _run_drawn_1_1
   1329 23                 5456 	inc	hl
   132A 36 00              5457 	ld	(hl),#0x00
                           5458 ;	paint.c 462
                           5459 ; genCall
   132C CD 00 00           5460 	call	_set_cursor
                           5461 ;	paint.c 463
                           5462 ; genCall
   132F CD 24 09           5463 	call	_move_cursor
                           5464 ;	paint.c 464
                           5465 ; genOr
                           5466 ; AOP_SFR for _LCDC_REG
                           5467 ; Type res[4] = l[4]&r[1]
                           5468 ; Size res[1] = l[1]&r[1]
   1332 F0 00              5469 	ldh	a,(_LCDC_REG+0) ; x
   1334 F6 02              5470 	or	a,#0x02
   1336 E0 00              5471 	ldh	(_LCDC_REG+0),a
                           5472 ;	paint.c 466
                           5473 ; genLabel
   1338                    5474 00133$:
                           5475 ;	paint.c 467
                           5476 ; genCall
   1338 CD 00 00           5477 	call	_wait_vbl_done
                           5478 ;	paint.c 468
                           5479 ; genCall
   133B CD 00 00           5480 	call	_joypad
                           5481 ; AOP_STK for _run_key_1_1
   133E F8 04              5482 	lda	hl,4(sp)
   1340 73                 5483 	ld	(hl),e
                           5484 ;	paint.c 469
                           5485 ; genAnd
                           5486 ; AOP_STK for _run_key_1_1
   1341 7E                 5487 	ld	a,(hl)
   1342 E6 0F              5488 	and	a,#0x0F
   1344 20 03              5489 	jr	nz,00155$
   1346 C3 D1 13           5490 	jp	00118$
   1349                    5491 00155$:
                           5492 ;	paint.c 470
                           5493 ; genAnd
                           5494 ; AOP_STK for _run_key_1_1
   1349 F8 04              5495 	lda	hl,4(sp)
   134B 7E                 5496 	ld	a,(hl)
   134C CB 57              5497 	bit	2,a
   134E CA 5C 13           5498 	jp	z,00102$
                           5499 ; genCmpGt
                           5500 ; AOP_HL for _cursor_y
   1351 AF                 5501 	xor	a,a
   1352 3E 00              5502 	ld	a,#0x00
   1354 21 06 03           5503 	ld	hl,#_cursor_y + 0
   1357 9E                 5504 	sbc	a,(hl) ; 2
   1358 D2 5C 13           5505 	jp	nc,00102$
                           5506 ;	paint.c 471
                           5507 ; genMinus
                           5508 ; AOP_HL for _cursor_y
   135B 35                 5509 	dec	(hl)
                           5510 ; genLabel
   135C                    5511 00102$:
                           5512 ;	paint.c 472
                           5513 ; genAnd
                           5514 ; AOP_STK for _run_key_1_1
   135C F8 04              5515 	lda	hl,4(sp)
   135E 7E                 5516 	ld	a,(hl)
   135F CB 5F              5517 	bit	3,a
   1361 CA 6E 13           5518 	jp	z,00105$
                           5519 ; genCmpLt
                           5520 ; AOP_HL for _cursor_y
   1364 21 06 03           5521 	ld	hl,#_cursor_y + 0
   1367 7E                 5522 	ld	a,(hl)
   1368 FE 8F              5523 	cp	#0x8F
   136A D2 6E 13           5524 	jp	nc,00105$
                           5525 ;	paint.c 473
                           5526 ; genPlus
                           5527 ; AOP_HL for _cursor_y
                           5528 ; genPlusIncr
   136D 34                 5529 	inc	(hl)
                           5530 ; genLabel
   136E                    5531 00105$:
                           5532 ;	paint.c 474
                           5533 ; genAnd
                           5534 ; AOP_STK for _run_key_1_1
   136E F8 04              5535 	lda	hl,4(sp)
   1370 7E                 5536 	ld	a,(hl)
   1371 CB 4F              5537 	bit	1,a
   1373 CA 81 13           5538 	jp	z,00108$
                           5539 ; genCmpGt
                           5540 ; AOP_HL for _cursor_x
   1376 AF                 5541 	xor	a,a
   1377 3E 00              5542 	ld	a,#0x00
   1379 21 05 03           5543 	ld	hl,#_cursor_x + 0
   137C 9E                 5544 	sbc	a,(hl) ; 2
   137D D2 81 13           5545 	jp	nc,00108$
                           5546 ;	paint.c 475
                           5547 ; genMinus
                           5548 ; AOP_HL for _cursor_x
   1380 35                 5549 	dec	(hl)
                           5550 ; genLabel
   1381                    5551 00108$:
                           5552 ;	paint.c 476
                           5553 ; genAnd
                           5554 ; AOP_STK for _run_key_1_1
   1381 F8 04              5555 	lda	hl,4(sp)
   1383 7E                 5556 	ld	a,(hl)
   1384 CB 47              5557 	bit	0,a
   1386 CA 93 13           5558 	jp	z,00111$
                           5559 ; genCmpLt
                           5560 ; AOP_HL for _cursor_x
   1389 21 05 03           5561 	ld	hl,#_cursor_x + 0
   138C 7E                 5562 	ld	a,(hl)
   138D FE 9F              5563 	cp	#0x9F
   138F D2 93 13           5564 	jp	nc,00111$
                           5565 ;	paint.c 477
                           5566 ; genPlus
                           5567 ; AOP_HL for _cursor_x
                           5568 ; genPlusIncr
   1392 34                 5569 	inc	(hl)
                           5570 ; genLabel
   1393                    5571 00111$:
                           5572 ;	paint.c 478
                           5573 ; genCall
   1393 CD 24 09           5574 	call	_move_cursor
                           5575 ;	paint.c 479
                           5576 ; genLabel
   1396                    5577 00114$:
                           5578 ; genIfx
                           5579 ; AOP_STK for _run_slowdown_1_1
   1396 AF                 5580 	xor	a,a
   1397 F8 03              5581 	lda	hl,3(sp)
   1399 B6                 5582 	or	a,(hl)
   139A B7                 5583 	or	a,a
   139B CA C3 13           5584 	jp	z,00116$
                           5585 ; genCall
   139E CD 00 00           5586 	call	_joypad
   13A1 4B                 5587 	ld	c,e
                           5588 ; genCmpEq
                           5589 ; AOP_STK for _run_key_1_1
                           5590 ; AOP_STK for _run_sloc0_1_0
   13A2 F8 04              5591 	lda	hl,4(sp)
   13A4 7E                 5592 	ld	a,(hl)
   13A5 B9                 5593 	cp	c ; 4
   13A6 C2 AD 13           5594 	jp	nz,00156$
   13A9 3E 01              5595 	ld	a,#0x01
   13AB 18 01              5596 	jr	00157$
   13AD                    5597 00156$:
   13AD AF                 5598 	xor	a,a
   13AE                    5599 00157$:
   13AE F8 00              5600 	lda	hl,0(sp)
   13B0 77                 5601 	ld	(hl),a
                           5602 ; genIfx
                           5603 ; AOP_STK for _run_sloc0_1_0
                           5604 ; Removed redundent or a,a
   13B1 AF                 5605 	xor	a,a
   13B2 B6                 5606 	or	a,(hl)
   13B3 CA C3 13           5607 	jp	z,00116$
                           5608 ;	paint.c 480
                           5609 ; genCall
   13B6 CD 00 00           5610 	call	_wait_vbl_done
                           5611 ;	paint.c 481
                           5612 ; genMinus
                           5613 ; AOP_STK for _run_slowdown_1_1
   13B9 F8 03              5614 	lda	hl,3(sp)
   13BB 7E                 5615 	ld	a,(hl)
   13BC C6 FF              5616 	add	a,#0xFF
   13BE 47                 5617 	ld	b,a
                           5618 ; genAssign
                           5619 ; AOP_STK for _run_slowdown_1_1
   13BF 70                 5620 	ld	(hl),b
                           5621 ; genGoto
   13C0 C3 96 13           5622 	jp	00114$
                           5623 ; genLabel
   13C3                    5624 00116$:
                           5625 ;	paint.c 483
                           5626 ; genAssign
                           5627 ; AOP_STK for _run_slowdown_1_1
   13C3 F8 03              5628 	lda	hl,3(sp)
   13C5 36 01              5629 	ld	(hl),#0x01
                           5630 ;	paint.c 484
                           5631 ; genAssign
                           5632 ; AOP_STK for _run_erased_1_1
   13C7 2B                 5633 	dec	hl
   13C8 2B                 5634 	dec	hl
   13C9 36 00              5635 	ld	(hl),#0x00
                           5636 ; genAssign
                           5637 ; AOP_STK for _run_drawn_1_1
   13CB 23                 5638 	inc	hl
   13CC 36 00              5639 	ld	(hl),#0x00
                           5640 ; genGoto
   13CE C3 D5 13           5641 	jp	00119$
                           5642 ; genLabel
   13D1                    5643 00118$:
                           5644 ;	paint.c 486
                           5645 ; genAssign
                           5646 ; AOP_STK for _run_slowdown_1_1
   13D1 F8 03              5647 	lda	hl,3(sp)
   13D3 36 0A              5648 	ld	(hl),#0x0A
                           5649 ; genLabel
   13D5                    5650 00119$:
                           5651 ;	paint.c 487
                           5652 ; genAnd
                           5653 ; AOP_STK for _run_key_1_1
   13D5 F8 04              5654 	lda	hl,4(sp)
   13D7 7E                 5655 	ld	a,(hl)
   13D8 CB 77              5656 	bit	6,a
   13DA CA F2 13           5657 	jp	z,00121$
                           5658 ;	paint.c 488
                           5659 ; genAnd
                           5660 ; AOP_SFR for _LCDC_REG
   13DD F0 00              5661 	ldh	a,(_LCDC_REG+0) ; x
   13DF E6 FD              5662 	and	a,#0xFD
   13E1 E0 00              5663 	ldh	(_LCDC_REG+0),a
                           5664 ;	paint.c 489
                           5665 ; genCall
   13E3 CD 58 10           5666 	call	_menu
                           5667 ;	paint.c 490
                           5668 ; genCall
   13E6 CD 00 00           5669 	call	_set_cursor
                           5670 ;	paint.c 491
                           5671 ; genCall
   13E9 CD 24 09           5672 	call	_move_cursor
                           5673 ;	paint.c 492
                           5674 ; genOr
                           5675 ; AOP_SFR for _LCDC_REG
                           5676 ; Type res[4] = l[4]&r[1]
                           5677 ; Size res[1] = l[1]&r[1]
   13EC F0 00              5678 	ldh	a,(_LCDC_REG+0) ; x
   13EE F6 02              5679 	or	a,#0x02
   13F0 E0 00              5680 	ldh	(_LCDC_REG+0),a
                           5681 ; genLabel
   13F2                    5682 00121$:
                           5683 ;	paint.c 494
                           5684 ; genAnd
                           5685 ; AOP_STK for _run_key_1_1
   13F2 F8 04              5686 	lda	hl,4(sp)
   13F4 7E                 5687 	ld	a,(hl)
   13F5 E6 30              5688 	and	a,#0x30
   13F7 4F                 5689 	ld	c,a
                           5690 ; genCmpEq
   13F8 79                 5691 	ld	a,c ; 2
   13F9 FE 10              5692 	cp	a,#0x10
   13FB C2 00 14           5693 	jp	nz,00158$
   13FE 18 03              5694 	jr	00159$
   1400                    5695 00158$:
   1400 C3 44 14           5696 	jp	00125$
   1403                    5697 00159$:
                           5698 ;	paint.c 495
                           5699 ; genIfx
                           5700 ; AOP_STK for _run_drawn_1_1
   1403 AF                 5701 	xor	a,a
   1404 F8 02              5702 	lda	hl,2(sp)
   1406 B6                 5703 	or	a,(hl)
   1407 B7                 5704 	or	a,a
   1408 C2 48 14           5705 	jp	nz,00126$
                           5706 ;	paint.c 496
                           5707 ; genPlus
                           5708 ; AOP_STK for _run_drawn_1_1
                           5709 ; genPlusIncr
   140B 34                 5710 	inc	(hl)
                           5711 ;	paint.c 497
                           5712 ; genAssign
                           5713 ; AOP_HL for _current_mode
   140C 21 02 03           5714 	ld	hl,#_current_mode + 0
   140F 4E                 5715 	ld	c,(hl)
                           5716 ; genPlus
                           5717 ;	genPlusIncr failed
   1410 3E 20              5718 	ld	a,#<_modes
   1412 81                 5719 	add	a,c
   1413 5F                 5720 	ld	e,a
   1414 3E 09              5721 	ld	a,#>_modes
   1416 CE 00              5722 	adc	a,#0x00
   1418 57                 5723 	ld	d,a
                           5724 ; genPointerGet
   1419 1A                 5725 	ld	a,(de)
   141A 4F                 5726 	ld	c,a
                           5727 ; genAssign
                           5728 ; AOP_HL for _current_color
   141B 21 01 03           5729 	ld	hl,#_current_color + 0
   141E 46                 5730 	ld	b,(hl)
                           5731 ; genPlus
                           5732 ;	genPlusIncr failed
   141F 3E 1C              5733 	ld	a,#<_colors
   1421 80                 5734 	add	a,b
   1422 5F                 5735 	ld	e,a
   1423 3E 09              5736 	ld	a,#>_colors
   1425 CE 00              5737 	adc	a,#0x00
   1427 57                 5738 	ld	d,a
                           5739 ; genPointerGet
   1428 1A                 5740 	ld	a,(de)
   1429 47                 5741 	ld	b,a
                           5742 ; genIpush
   142A 79                 5743 	ld	a,c
   142B F5                 5744 	push	af
   142C 33                 5745 	inc	sp
                           5746 ; genIpush
   142D 78                 5747 	ld	a,b
   142E F5                 5748 	push	af
   142F 33                 5749 	inc	sp
                           5750 ; genIpush
                           5751 ; AOP_HL for _cursor_y
   1430 21 06 03           5752 	ld	hl,#_cursor_y + 0
   1433 7E                 5753 	ld	a,(hl)
   1434 F5                 5754 	push	af
   1435 33                 5755 	inc	sp
                           5756 ; genIpush
                           5757 ; AOP_HL for _cursor_x
   1436 21 05 03           5758 	ld	hl,#_cursor_x + 0
   1439 7E                 5759 	ld	a,(hl)
   143A F5                 5760 	push	af
   143B 33                 5761 	inc	sp
                           5762 ; genCall
   143C CD 00 00           5763 	call	_plot
   143F E8 04              5764 	lda	sp,4(sp)
                           5765 ; genGoto
   1441 C3 48 14           5766 	jp	00126$
                           5767 ; genLabel
   1444                    5768 00125$:
                           5769 ;	paint.c 500
                           5770 ; genAssign
                           5771 ; AOP_STK for _run_drawn_1_1
   1444 F8 02              5772 	lda	hl,2(sp)
   1446 36 00              5773 	ld	(hl),#0x00
                           5774 ; genLabel
   1448                    5775 00126$:
                           5776 ;	paint.c 501
                           5777 ; genAnd
                           5778 ; AOP_STK for _run_key_1_1
   1448 F8 04              5779 	lda	hl,4(sp)
   144A 7E                 5780 	ld	a,(hl)
   144B E6 30              5781 	and	a,#0x30
   144D 4F                 5782 	ld	c,a
                           5783 ; genCmpEq
   144E 79                 5784 	ld	a,c ; 2
   144F FE 20              5785 	cp	a,#0x20
   1451 C2 56 14           5786 	jp	nz,00160$
   1454 18 03              5787 	jr	00161$
   1456                    5788 00160$:
   1456 C3 7E 14           5789 	jp	00130$
   1459                    5790 00161$:
                           5791 ;	paint.c 502
                           5792 ; genIfx
                           5793 ; AOP_STK for _run_erased_1_1
   1459 AF                 5794 	xor	a,a
   145A F8 01              5795 	lda	hl,1(sp)
   145C B6                 5796 	or	a,(hl)
   145D B7                 5797 	or	a,a
   145E C2 38 13           5798 	jp	nz,00133$
                           5799 ;	paint.c 503
                           5800 ; genPlus
                           5801 ; AOP_STK for _run_erased_1_1
                           5802 ; genPlusIncr
   1461 34                 5803 	inc	(hl)
                           5804 ;	paint.c 504
                           5805 ; genIpush
   1462 3E 00              5806 	ld	a,#0x00
   1464 F5                 5807 	push	af
   1465 33                 5808 	inc	sp
                           5809 ; genIpush
   1466 3E 00              5810 	ld	a,#0x00
   1468 F5                 5811 	push	af
   1469 33                 5812 	inc	sp
                           5813 ; genIpush
                           5814 ; AOP_HL for _cursor_y
   146A 21 06 03           5815 	ld	hl,#_cursor_y + 0
   146D 7E                 5816 	ld	a,(hl)
   146E F5                 5817 	push	af
   146F 33                 5818 	inc	sp
                           5819 ; genIpush
                           5820 ; AOP_HL for _cursor_x
   1470 21 05 03           5821 	ld	hl,#_cursor_x + 0
   1473 7E                 5822 	ld	a,(hl)
   1474 F5                 5823 	push	af
   1475 33                 5824 	inc	sp
                           5825 ; genCall
   1476 CD 00 00           5826 	call	_plot
   1479 E8 04              5827 	lda	sp,4(sp)
                           5828 ; genGoto
   147B C3 38 13           5829 	jp	00133$
                           5830 ; genLabel
   147E                    5831 00130$:
                           5832 ;	paint.c 507
                           5833 ; genAssign
                           5834 ; AOP_STK for _run_erased_1_1
   147E F8 01              5835 	lda	hl,1(sp)
   1480 36 00              5836 	ld	(hl),#0x00
                           5837 ; genGoto
   1482 C3 38 13           5838 	jp	00133$
                           5839 ; genLabel
   1485                    5840 00135$:
                           5841 ; genEndFunction
   1485 E8 05              5842 	lda	sp,5(sp)
   1487 C1                 5843 	pop	bc
   1488 C9                 5844 	ret
   1489                    5845 ___run_end:
                           5846 ;	paint.c 511
                           5847 ; genLabel
                           5848 ; genFunction
                           5849 ;	---------------------------------
                           5850 ; Function main
                           5851 ; ---------------------------------
   1489                    5852 ___main_start:
   1489                    5853 _main:
                           5854 	
                           5855 ;	paint.c 514
                           5856 ; genAssign
                           5857 ; AOP_SFR for _OBP1_REG
   1489 3E E0              5858 	ld	a,#0xE0
   148B E0 00              5859 	ldh	(_OBP1_REG+0),a
                           5860 ;	paint.c 516
                           5861 ; genCall
   148D CD 25 0F           5862 	call	_splash
                           5863 ;	paint.c 518
                           5864 ; genAssign
                           5865 ; AOP_HL for _current_tool
   1490 21 00 03           5866 	ld	hl,#_current_tool + 0
   1493 36 00              5867 	ld	(hl),#0x00
                           5868 ;	paint.c 519
                           5869 ; genAssign
                           5870 ; AOP_HL for _current_color
   1495 21 01 03           5871 	ld	hl,#_current_color + 0
   1498 36 03              5872 	ld	(hl),#0x03
                           5873 ;	paint.c 520
                           5874 ; genAssign
                           5875 ; AOP_HL for _current_mode
   149A 21 02 03           5876 	ld	hl,#_current_mode + 0
   149D 36 00              5877 	ld	(hl),#0x00
                           5878 ;	paint.c 521
                           5879 ; genAssign
                           5880 ; AOP_HL for _current_cursor
   149F 21 03 03           5881 	ld	hl,#_current_cursor + 0
   14A2 36 01              5882 	ld	(hl),#0x01
                           5883 ;	paint.c 522
                           5884 ; genAssign
                           5885 ; AOP_HL for _menu_cursor_pos
   14A4 21 04 03           5886 	ld	hl,#_menu_cursor_pos + 0
   14A7 36 00              5887 	ld	(hl),#0x00
                           5888 ;	paint.c 523
                           5889 ; genAssign
                           5890 ; AOP_HL for _cursor_x
   14A9 21 05 03           5891 	ld	hl,#_cursor_x + 0
   14AC 36 50              5892 	ld	(hl),#0x50
                           5893 ;	paint.c 524
                           5894 ; genAssign
                           5895 ; AOP_HL for _cursor_y
   14AE 21 06 03           5896 	ld	hl,#_cursor_y + 0
   14B1 36 48              5897 	ld	(hl),#0x48
                           5898 ;	paint.c 526
                           5899 ; genCall
   14B3 CD 1E 13           5900 	call	_run
                           5901 ; genLabel
   14B6                    5902 00101$:
                           5903 ; genEndFunction
                           5904 	
   14B6 C9                 5905 	ret
   14B7                    5906 ___main_end:
                           5907 	.area _CODE
ASxxxx Assembler V01.75  (GameBoy Z80-like CPU), page 1.

Symbol Table

    _BCPD_REG                          **** GX
    _BCPS_REG                          **** GX
    _BGP_REG                           **** GX
    _DIV_REG                           **** GX
    _DMA_REG                           **** GX
    _HDMA1_REG                         **** GX
    _HDMA2_REG                         **** GX
    _HDMA3_REG                         **** GX
    _HDMA4_REG                         **** GX
    _HDMA5_REG                         **** GX
    _IE_REG                            **** GX
    _IF_REG                            **** GX
    _KEY1_REG                          **** GX
    _LCDC_REG                          **** GX
    _LYC_REG                           **** GX
    _LY_REG                            **** GX
    _NR10_REG                          **** GX
    _NR11_REG                          **** GX
    _NR12_REG                          **** GX
    _NR13_REG                          **** GX
    _NR14_REG                          **** GX
    _NR21_REG                          **** GX
    _NR22_REG                          **** GX
    _NR23_REG                          **** GX
    _NR24_REG                          **** GX
    _NR30_REG                          **** GX
    _NR31_REG                          **** GX
    _NR32_REG                          **** GX
    _NR33_REG                          **** GX
    _NR34_REG                          **** GX
    _NR41_REG                          **** GX
    _NR42_REG                          **** GX
    _NR43_REG                          **** GX
    _NR44_REG                          **** GX
    _NR50_REG                          **** GX
    _NR51_REG                          **** GX
    _NR52_REG                          **** GX
    _OBP0_REG                          **** GX
    _OBP1_REG                          **** GX
    _OCPD_REG                          **** GX
    _OCPS_REG                          **** GX
    _P1_REG                            **** GX
    _RP_REG                            **** GX
    _SB_REG                            **** GX
    _SCX_REG                           **** GX
    _SCY_REG                           **** GX
    _SC_REG                            **** GX
    _STAT_REG                          **** GX
    _SVBK_REG                          **** GX
    _TAC_REG                           **** GX
    _TIMA_REG                          **** GX
    _TMA_REG                           **** GX
    _VBK_REG                           **** GX
    _WX_REG                            **** GX
    _WY_REG                            **** GX
  0 ___change_icon_end                 0E21 R
  0 ___change_icon_start               0C3F R
  0 ___main_end                        14B7 R
  0 ___main_start                      1489 R
  0 ___menu_end                        131E R
  0 ___menu_start                      1058 R
  0 ___move_cursor_end                 0A36 R
  0 ___move_cursor_start               0924 R
  0 ___move_menu_cursor_end            0AAF R
  0 ___move_menu_cursor_start          0A36 R
  0 ___reset_icon_end                  0F25 R
  0 ___reset_icon_start                0E21 R
  0 ___run_end                         1489 R
  0 ___run_start                       131E R
  0 ___set_cursor_end                  00FA R
  0 ___set_cursor_start                0000 R
  0 ___set_icon_end                    0C3F R
  0 ___set_icon_start                  0AAF R
  0 ___splash_end                      1058 R
  0 ___splash_start                    0F25 R
    __cpu                              **** GX
    __io_in                            **** GX
    __io_out                           **** GX
    __io_status                        **** GX
    __muluchar                         **** GX
  0 _change_icon                       0C3F GR
  0 _colors                            091C GR
  1 _current_color                     0301 GR
  1 _current_cursor                    0303 GR
  1 _current_mode                      0302 GR
  1 _current_tool                      0300 GR
  1 _cursor_x                          0305 GR
  1 _cursor_y                          0306 GR
  0 _cursors                           07AE GR
  0 _cursors_data                      07CC GR
  0 _data                              01AE GR
  1 _data_buffer                       0000 GR
  0 _icons                             00FA GR
    _joypad                            **** GX
  0 _main                              1489 GR
  0 _menu                              1058 GR
  1 _menu_cursor_pos                   0304 GR
  0 _modes                             0920 GR
  0 _move_cursor                       0924 GR
  0 _move_menu_cursor                  0A36 GR
    _move_sprite                       **** GX
    _plot                              **** GX
  0 _reset_icon                        0E21 GR
  0 _run                               131E GR
  0 _selected_data                     04AE GR
  0 _set_cursor                        0000 GR
  0 _set_icon                          0AAF GR
    _set_sprite_data                   **** GX
    _set_sprite_prop                   **** GX
    _set_sprite_tile                   **** GX
  0 _splash                            0F25 GR
    _switch_data                       **** GX
    _sys_time                          **** GX
    _wait_vbl_done                     **** GX
    _waitpadup                         **** GX

ASxxxx Assembler V01.75  (GameBoy Z80-like CPU), page 2.

Area Table

   0 _CODE                              size 14B7   flags 0
   1 _DATA                              size  307   flags 0
   2 _OVERLAY                           size    0   flags 0
   3 _ISEG                              size    0   flags 0
   4 _BSEG                              size    0   flags 0
   5 _XSEG                              size    0   flags 0
   6 _GSINIT                            size    0   flags 0
   7 _GSFINAL                           size    0   flags 0
   8 _HOME                              size    0   flags 0
